Archive member included to satisfy reference by file (symbol)

c:/st/stm32cubeide_1.7.0/stm32cubeide/plugins/com.st.stm32cube.ide.mcu.externaltools.gnu-tools-for-stm32.9-2020-q2-update.win32_2.0.0.202105311346/tools/bin/../lib/gcc/arm-none-eabi/9.3.1/../../../../arm-none-eabi/lib/thumb/v7e-m/nofp\libc_nano.a(lib_a-errno.o)
                              ./src/syscalls.o (__errno)
c:/st/stm32cubeide_1.7.0/stm32cubeide/plugins/com.st.stm32cube.ide.mcu.externaltools.gnu-tools-for-stm32.9-2020-q2-update.win32_2.0.0.202105311346/tools/bin/../lib/gcc/arm-none-eabi/9.3.1/../../../../arm-none-eabi/lib/thumb/v7e-m/nofp\libc_nano.a(lib_a-exit.o)
                              c:/st/stm32cubeide_1.7.0/stm32cubeide/plugins/com.st.stm32cube.ide.mcu.externaltools.gnu-tools-for-stm32.9-2020-q2-update.win32_2.0.0.202105311346/tools/bin/../lib/gcc/arm-none-eabi/9.3.1/../../../../arm-none-eabi/lib/thumb/v7e-m/nofp/crt0.o (exit)
c:/st/stm32cubeide_1.7.0/stm32cubeide/plugins/com.st.stm32cube.ide.mcu.externaltools.gnu-tools-for-stm32.9-2020-q2-update.win32_2.0.0.202105311346/tools/bin/../lib/gcc/arm-none-eabi/9.3.1/../../../../arm-none-eabi/lib/thumb/v7e-m/nofp\libc_nano.a(lib_a-impure.o)
                              c:/st/stm32cubeide_1.7.0/stm32cubeide/plugins/com.st.stm32cube.ide.mcu.externaltools.gnu-tools-for-stm32.9-2020-q2-update.win32_2.0.0.202105311346/tools/bin/../lib/gcc/arm-none-eabi/9.3.1/../../../../arm-none-eabi/lib/thumb/v7e-m/nofp\libc_nano.a(lib_a-exit.o) (_global_impure_ptr)
c:/st/stm32cubeide_1.7.0/stm32cubeide/plugins/com.st.stm32cube.ide.mcu.externaltools.gnu-tools-for-stm32.9-2020-q2-update.win32_2.0.0.202105311346/tools/bin/../lib/gcc/arm-none-eabi/9.3.1/../../../../arm-none-eabi/lib/thumb/v7e-m/nofp\libc_nano.a(lib_a-init.o)
                              c:/st/stm32cubeide_1.7.0/stm32cubeide/plugins/com.st.stm32cube.ide.mcu.externaltools.gnu-tools-for-stm32.9-2020-q2-update.win32_2.0.0.202105311346/tools/bin/../lib/gcc/arm-none-eabi/9.3.1/../../../../arm-none-eabi/lib/thumb/v7e-m/nofp/crt0.o (__libc_init_array)
c:/st/stm32cubeide_1.7.0/stm32cubeide/plugins/com.st.stm32cube.ide.mcu.externaltools.gnu-tools-for-stm32.9-2020-q2-update.win32_2.0.0.202105311346/tools/bin/../lib/gcc/arm-none-eabi/9.3.1/../../../../arm-none-eabi/lib/thumb/v7e-m/nofp\libc_nano.a(lib_a-memset.o)
                              c:/st/stm32cubeide_1.7.0/stm32cubeide/plugins/com.st.stm32cube.ide.mcu.externaltools.gnu-tools-for-stm32.9-2020-q2-update.win32_2.0.0.202105311346/tools/bin/../lib/gcc/arm-none-eabi/9.3.1/../../../../arm-none-eabi/lib/thumb/v7e-m/nofp/crt0.o (memset)
c:/st/stm32cubeide_1.7.0/stm32cubeide/plugins/com.st.stm32cube.ide.mcu.externaltools.gnu-tools-for-stm32.9-2020-q2-update.win32_2.0.0.202105311346/tools/bin/../lib/gcc/arm-none-eabi/9.3.1/thumb/v7e-m/nofp\libgcc.a(_arm_mulsf3.o)
                              ./Drivers/src/PollDataClient.o (__aeabi_fmul)
c:/st/stm32cubeide_1.7.0/stm32cubeide/plugins/com.st.stm32cube.ide.mcu.externaltools.gnu-tools-for-stm32.9-2020-q2-update.win32_2.0.0.202105311346/tools/bin/../lib/gcc/arm-none-eabi/9.3.1/thumb/v7e-m/nofp\libgcc.a(_arm_addsubsf3.o)
                              ./Drivers/src/PollDataClient.o (__aeabi_fsub)
c:/st/stm32cubeide_1.7.0/stm32cubeide/plugins/com.st.stm32cube.ide.mcu.externaltools.gnu-tools-for-stm32.9-2020-q2-update.win32_2.0.0.202105311346/tools/bin/../lib/gcc/arm-none-eabi/9.3.1/thumb/v7e-m/nofp\libgcc.a(_arm_cmpsf2.o)
                              ./Drivers/src/PollDataClient.o (__aeabi_fcmplt)
c:/st/stm32cubeide_1.7.0/stm32cubeide/plugins/com.st.stm32cube.ide.mcu.externaltools.gnu-tools-for-stm32.9-2020-q2-update.win32_2.0.0.202105311346/tools/bin/../lib/gcc/arm-none-eabi/9.3.1/thumb/v7e-m/nofp\libgcc.a(_arm_fixsfsi.o)
                              ./Drivers/src/poller.o (__aeabi_f2iz)

Discarded input sections

 .text          0x0000000000000000        0x0 c:/st/stm32cubeide_1.7.0/stm32cubeide/plugins/com.st.stm32cube.ide.mcu.externaltools.gnu-tools-for-stm32.9-2020-q2-update.win32_2.0.0.202105311346/tools/bin/../lib/gcc/arm-none-eabi/9.3.1/thumb/v7e-m/nofp/crti.o
 .data          0x0000000000000000        0x0 c:/st/stm32cubeide_1.7.0/stm32cubeide/plugins/com.st.stm32cube.ide.mcu.externaltools.gnu-tools-for-stm32.9-2020-q2-update.win32_2.0.0.202105311346/tools/bin/../lib/gcc/arm-none-eabi/9.3.1/thumb/v7e-m/nofp/crti.o
 .bss           0x0000000000000000        0x0 c:/st/stm32cubeide_1.7.0/stm32cubeide/plugins/com.st.stm32cube.ide.mcu.externaltools.gnu-tools-for-stm32.9-2020-q2-update.win32_2.0.0.202105311346/tools/bin/../lib/gcc/arm-none-eabi/9.3.1/thumb/v7e-m/nofp/crti.o
 .data          0x0000000000000000        0x4 c:/st/stm32cubeide_1.7.0/stm32cubeide/plugins/com.st.stm32cube.ide.mcu.externaltools.gnu-tools-for-stm32.9-2020-q2-update.win32_2.0.0.202105311346/tools/bin/../lib/gcc/arm-none-eabi/9.3.1/thumb/v7e-m/nofp/crtbegin.o
 .text          0x0000000000000000       0x7c c:/st/stm32cubeide_1.7.0/stm32cubeide/plugins/com.st.stm32cube.ide.mcu.externaltools.gnu-tools-for-stm32.9-2020-q2-update.win32_2.0.0.202105311346/tools/bin/../lib/gcc/arm-none-eabi/9.3.1/../../../../arm-none-eabi/lib/thumb/v7e-m/nofp/crt0.o
 .data          0x0000000000000000        0x0 c:/st/stm32cubeide_1.7.0/stm32cubeide/plugins/com.st.stm32cube.ide.mcu.externaltools.gnu-tools-for-stm32.9-2020-q2-update.win32_2.0.0.202105311346/tools/bin/../lib/gcc/arm-none-eabi/9.3.1/../../../../arm-none-eabi/lib/thumb/v7e-m/nofp/crt0.o
 .bss           0x0000000000000000        0x0 c:/st/stm32cubeide_1.7.0/stm32cubeide/plugins/com.st.stm32cube.ide.mcu.externaltools.gnu-tools-for-stm32.9-2020-q2-update.win32_2.0.0.202105311346/tools/bin/../lib/gcc/arm-none-eabi/9.3.1/../../../../arm-none-eabi/lib/thumb/v7e-m/nofp/crt0.o
 .ARM.extab     0x0000000000000000        0x0 c:/st/stm32cubeide_1.7.0/stm32cubeide/plugins/com.st.stm32cube.ide.mcu.externaltools.gnu-tools-for-stm32.9-2020-q2-update.win32_2.0.0.202105311346/tools/bin/../lib/gcc/arm-none-eabi/9.3.1/../../../../arm-none-eabi/lib/thumb/v7e-m/nofp/crt0.o
 .ARM.exidx     0x0000000000000000       0x10 c:/st/stm32cubeide_1.7.0/stm32cubeide/plugins/com.st.stm32cube.ide.mcu.externaltools.gnu-tools-for-stm32.9-2020-q2-update.win32_2.0.0.202105311346/tools/bin/../lib/gcc/arm-none-eabi/9.3.1/../../../../arm-none-eabi/lib/thumb/v7e-m/nofp/crt0.o
 .ARM.attributes
                0x0000000000000000       0x1c c:/st/stm32cubeide_1.7.0/stm32cubeide/plugins/com.st.stm32cube.ide.mcu.externaltools.gnu-tools-for-stm32.9-2020-q2-update.win32_2.0.0.202105311346/tools/bin/../lib/gcc/arm-none-eabi/9.3.1/../../../../arm-none-eabi/lib/thumb/v7e-m/nofp/crt0.o
 .group         0x0000000000000000        0xc ./Drivers/src/GPIO.o
 .group         0x0000000000000000        0xc ./Drivers/src/GPIO.o
 .text          0x0000000000000000        0x0 ./Drivers/src/GPIO.o
 .bss           0x0000000000000000        0x0 ./Drivers/src/GPIO.o
 .text.GPIO_ReadPin
                0x0000000000000000       0x4c ./Drivers/src/GPIO.o
 .group         0x0000000000000000        0xc ./Drivers/src/PollDataClient.o
 .group         0x0000000000000000        0xc ./Drivers/src/PollDataClient.o
 .group         0x0000000000000000        0xc ./Drivers/src/PollDataClient.o
 .group         0x0000000000000000        0xc ./Drivers/src/PollDataClient.o
 .group         0x0000000000000000        0xc ./Drivers/src/PollDataClient.o
 .group         0x0000000000000000        0xc ./Drivers/src/PollDataClient.o
 .group         0x0000000000000000        0xc ./Drivers/src/PollDataClient.o
 .group         0x0000000000000000        0xc ./Drivers/src/PollDataClient.o
 .group         0x0000000000000000        0xc ./Drivers/src/PollDataClient.o
 .group         0x0000000000000000        0xc ./Drivers/src/PollDataClient.o
 .group         0x0000000000000000        0xc ./Drivers/src/PollDataClient.o
 .group         0x0000000000000000        0xc ./Drivers/src/PollDataClient.o
 .group         0x0000000000000000        0xc ./Drivers/src/PollDataClient.o
 .group         0x0000000000000000        0xc ./Drivers/src/PollDataClient.o
 .group         0x0000000000000000        0xc ./Drivers/src/PollDataClient.o
 .group         0x0000000000000000        0xc ./Drivers/src/PollDataClient.o
 .group         0x0000000000000000        0xc ./Drivers/src/PollDataClient.o
 .group         0x0000000000000000        0xc ./Drivers/src/PollDataClient.o
 .group         0x0000000000000000        0xc ./Drivers/src/PollDataClient.o
 .group         0x0000000000000000        0xc ./Drivers/src/PollDataClient.o
 .group         0x0000000000000000        0xc ./Drivers/src/PollDataClient.o
 .group         0x0000000000000000        0xc ./Drivers/src/PollDataClient.o
 .group         0x0000000000000000        0xc ./Drivers/src/PollDataClient.o
 .group         0x0000000000000000        0xc ./Drivers/src/PollDataClient.o
 .group         0x0000000000000000        0xc ./Drivers/src/PollDataClient.o
 .group         0x0000000000000000        0xc ./Drivers/src/PollDataClient.o
 .group         0x0000000000000000        0xc ./Drivers/src/PollDataClient.o
 .group         0x0000000000000000        0xc ./Drivers/src/PollDataClient.o
 .group         0x0000000000000000        0xc ./Drivers/src/PollDataClient.o
 .group         0x0000000000000000        0xc ./Drivers/src/PollDataClient.o
 .group         0x0000000000000000        0xc ./Drivers/src/PollDataClient.o
 .group         0x0000000000000000        0xc ./Drivers/src/PollDataClient.o
 .group         0x0000000000000000        0xc ./Drivers/src/PollDataClient.o
 .group         0x0000000000000000        0xc ./Drivers/src/PollDataClient.o
 .group         0x0000000000000000        0xc ./Drivers/src/PollDataClient.o
 .text          0x0000000000000000        0x0 ./Drivers/src/PollDataClient.o
 .debug_macro   0x0000000000000000      0xaa8 ./Drivers/src/PollDataClient.o
 .debug_macro   0x0000000000000000       0xe8 ./Drivers/src/PollDataClient.o
 .group         0x0000000000000000        0xc ./Drivers/src/PollerTimer.o
 .group         0x0000000000000000        0xc ./Drivers/src/PollerTimer.o
 .group         0x0000000000000000        0xc ./Drivers/src/PollerTimer.o
 .group         0x0000000000000000        0xc ./Drivers/src/PollerTimer.o
 .group         0x0000000000000000        0xc ./Drivers/src/PollerTimer.o
 .group         0x0000000000000000        0xc ./Drivers/src/PollerTimer.o
 .group         0x0000000000000000        0xc ./Drivers/src/PollerTimer.o
 .group         0x0000000000000000        0xc ./Drivers/src/PollerTimer.o
 .group         0x0000000000000000        0xc ./Drivers/src/PollerTimer.o
 .group         0x0000000000000000        0xc ./Drivers/src/PollerTimer.o
 .group         0x0000000000000000        0xc ./Drivers/src/PollerTimer.o
 .group         0x0000000000000000        0xc ./Drivers/src/PollerTimer.o
 .group         0x0000000000000000        0xc ./Drivers/src/PollerTimer.o
 .text          0x0000000000000000        0x0 ./Drivers/src/PollerTimer.o
 .data          0x0000000000000000        0x0 ./Drivers/src/PollerTimer.o
 .bss           0x0000000000000000        0x0 ./Drivers/src/PollerTimer.o
 .text.NVIC_DisableIRQ
                0x0000000000000000       0x34 ./Drivers/src/PollerTimer.o
 .text.StopTimer
                0x0000000000000000       0x20 ./Drivers/src/PollerTimer.o
 .text.DisableInterrupt
                0x0000000000000000       0x22 ./Drivers/src/PollerTimer.o
 .debug_macro   0x0000000000000000      0xaa8 ./Drivers/src/PollerTimer.o
 .debug_macro   0x0000000000000000       0x22 ./Drivers/src/PollerTimer.o
 .debug_macro   0x0000000000000000       0x6a ./Drivers/src/PollerTimer.o
 .group         0x0000000000000000        0xc ./Drivers/src/SPI.o
 .group         0x0000000000000000        0xc ./Drivers/src/SPI.o
 .group         0x0000000000000000        0xc ./Drivers/src/SPI.o
 .text          0x0000000000000000        0x0 ./Drivers/src/SPI.o
 .data          0x0000000000000000        0x0 ./Drivers/src/SPI.o
 .bss           0x0000000000000000        0x0 ./Drivers/src/SPI.o
 .debug_macro   0x0000000000000000      0xaa8 ./Drivers/src/SPI.o
 .group         0x0000000000000000        0xc ./Drivers/src/TC72.o
 .group         0x0000000000000000        0xc ./Drivers/src/TC72.o
 .group         0x0000000000000000        0xc ./Drivers/src/TC72.o
 .text          0x0000000000000000        0x0 ./Drivers/src/TC72.o
 .data          0x0000000000000000        0x0 ./Drivers/src/TC72.o
 .bss           0x0000000000000000        0x0 ./Drivers/src/TC72.o
 .debug_macro   0x0000000000000000      0xaa8 ./Drivers/src/TC72.o
 .debug_macro   0x0000000000000000       0x46 ./Drivers/src/TC72.o
 .group         0x0000000000000000        0xc ./Drivers/src/USART.o
 .group         0x0000000000000000        0xc ./Drivers/src/USART.o
 .group         0x0000000000000000        0xc ./Drivers/src/USART.o
 .text          0x0000000000000000        0x0 ./Drivers/src/USART.o
 .data          0x0000000000000000        0x0 ./Drivers/src/USART.o
 .bss           0x0000000000000000        0x0 ./Drivers/src/USART.o
 .debug_macro   0x0000000000000000      0xaa8 ./Drivers/src/USART.o
 .debug_macro   0x0000000000000000       0x3a ./Drivers/src/USART.o
 .debug_macro   0x0000000000000000       0xe8 ./Drivers/src/USART.o
 .group         0x0000000000000000        0xc ./Drivers/src/Util.o
 .group         0x0000000000000000        0xc ./Drivers/src/Util.o
 .text          0x0000000000000000        0x0 ./Drivers/src/Util.o
 .data          0x0000000000000000        0x0 ./Drivers/src/Util.o
 .bss           0x0000000000000000        0x0 ./Drivers/src/Util.o
 .text.delay_ms
                0x0000000000000000       0x38 ./Drivers/src/Util.o
 .debug_info    0x0000000000000000       0x6a ./Drivers/src/Util.o
 .debug_abbrev  0x0000000000000000       0x60 ./Drivers/src/Util.o
 .debug_aranges
                0x0000000000000000       0x20 ./Drivers/src/Util.o
 .debug_ranges  0x0000000000000000       0x10 ./Drivers/src/Util.o
 .debug_macro   0x0000000000000000       0x1a ./Drivers/src/Util.o
 .debug_macro   0x0000000000000000      0xaa8 ./Drivers/src/Util.o
 .debug_macro   0x0000000000000000       0x1c ./Drivers/src/Util.o
 .debug_line    0x0000000000000000       0xaa ./Drivers/src/Util.o
 .debug_str     0x0000000000000000     0x2e45 ./Drivers/src/Util.o
 .comment       0x0000000000000000       0x54 ./Drivers/src/Util.o
 .debug_frame   0x0000000000000000       0x38 ./Drivers/src/Util.o
 .ARM.attributes
                0x0000000000000000       0x2e ./Drivers/src/Util.o
 .group         0x0000000000000000        0xc ./Drivers/src/device.o
 .group         0x0000000000000000        0xc ./Drivers/src/device.o
 .group         0x0000000000000000        0xc ./Drivers/src/device.o
 .group         0x0000000000000000        0xc ./Drivers/src/device.o
 .text          0x0000000000000000        0x0 ./Drivers/src/device.o
 .data          0x0000000000000000        0x0 ./Drivers/src/device.o
 .debug_macro   0x0000000000000000      0xaa8 ./Drivers/src/device.o
 .debug_macro   0x0000000000000000       0x46 ./Drivers/src/device.o
 .debug_macro   0x0000000000000000       0xe8 ./Drivers/src/device.o
 .debug_macro   0x0000000000000000       0x3a ./Drivers/src/device.o
 .group         0x0000000000000000        0xc ./Drivers/src/poller.o
 .group         0x0000000000000000        0xc ./Drivers/src/poller.o
 .group         0x0000000000000000        0xc ./Drivers/src/poller.o
 .text          0x0000000000000000        0x0 ./Drivers/src/poller.o
 .text.StopPolling
                0x0000000000000000       0x18 ./Drivers/src/poller.o
 .debug_macro   0x0000000000000000      0xaa8 ./Drivers/src/poller.o
 .debug_macro   0x0000000000000000       0xe8 ./Drivers/src/poller.o
 .debug_macro   0x0000000000000000       0x3a ./Drivers/src/poller.o
 .group         0x0000000000000000        0xc ./Drivers/src/system_stm32f4xx.o
 .group         0x0000000000000000        0xc ./Drivers/src/system_stm32f4xx.o
 .group         0x0000000000000000        0xc ./Drivers/src/system_stm32f4xx.o
 .group         0x0000000000000000        0xc ./Drivers/src/system_stm32f4xx.o
 .group         0x0000000000000000        0xc ./Drivers/src/system_stm32f4xx.o
 .group         0x0000000000000000        0xc ./Drivers/src/system_stm32f4xx.o
 .group         0x0000000000000000        0xc ./Drivers/src/system_stm32f4xx.o
 .group         0x0000000000000000        0xc ./Drivers/src/system_stm32f4xx.o
 .group         0x0000000000000000        0xc ./Drivers/src/system_stm32f4xx.o
 .group         0x0000000000000000        0xc ./Drivers/src/system_stm32f4xx.o
 .group         0x0000000000000000        0xc ./Drivers/src/system_stm32f4xx.o
 .group         0x0000000000000000        0xc ./Drivers/src/system_stm32f4xx.o
 .group         0x0000000000000000        0xc ./Drivers/src/system_stm32f4xx.o
 .text          0x0000000000000000        0x0 ./Drivers/src/system_stm32f4xx.o
 .data          0x0000000000000000        0x4 ./Drivers/src/system_stm32f4xx.o
 .bss           0x0000000000000000        0x0 ./Drivers/src/system_stm32f4xx.o
 .rodata        0x0000000000000000       0x18 ./Drivers/src/system_stm32f4xx.o
 .text.SystemCoreClockUpdate
                0x0000000000000000      0x100 ./Drivers/src/system_stm32f4xx.o
 .debug_macro   0x0000000000000000      0xaa8 ./Drivers/src/system_stm32f4xx.o
 .debug_macro   0x0000000000000000       0x65 ./Drivers/src/system_stm32f4xx.o
 .debug_macro   0x0000000000000000       0x3b ./Drivers/src/system_stm32f4xx.o
 .debug_macro   0x0000000000000000       0x22 ./Drivers/src/system_stm32f4xx.o
 .debug_macro   0x0000000000000000       0x8e ./Drivers/src/system_stm32f4xx.o
 .debug_macro   0x0000000000000000       0x51 ./Drivers/src/system_stm32f4xx.o
 .debug_macro   0x0000000000000000      0x103 ./Drivers/src/system_stm32f4xx.o
 .debug_macro   0x0000000000000000       0x6a ./Drivers/src/system_stm32f4xx.o
 .debug_macro   0x0000000000000000      0x1df ./Drivers/src/system_stm32f4xx.o
 .debug_macro   0x0000000000000000       0x34 ./Drivers/src/system_stm32f4xx.o
 .debug_macro   0x0000000000000000       0x26 ./Drivers/src/system_stm32f4xx.o
 .debug_macro   0x0000000000000000      0xe43 ./Drivers/src/system_stm32f4xx.o
 .debug_macro   0x0000000000000000     0x800a ./Drivers/src/system_stm32f4xx.o
 .group         0x0000000000000000        0xc ./src/main.o
 .group         0x0000000000000000        0xc ./src/main.o
 .group         0x0000000000000000        0xc ./src/main.o
 .group         0x0000000000000000        0xc ./src/main.o
 .group         0x0000000000000000        0xc ./src/main.o
 .group         0x0000000000000000        0xc ./src/main.o
 .group         0x0000000000000000        0xc ./src/main.o
 .group         0x0000000000000000        0xc ./src/main.o
 .group         0x0000000000000000        0xc ./src/main.o
 .group         0x0000000000000000        0xc ./src/main.o
 .group         0x0000000000000000        0xc ./src/main.o
 .group         0x0000000000000000        0xc ./src/main.o
 .group         0x0000000000000000        0xc ./src/main.o
 .group         0x0000000000000000        0xc ./src/main.o
 .group         0x0000000000000000        0xc ./src/main.o
 .group         0x0000000000000000        0xc ./src/main.o
 .text          0x0000000000000000        0x0 ./src/main.o
 .data          0x0000000000000000        0x0 ./src/main.o
 .bss           0x0000000000000000        0x0 ./src/main.o
 .debug_macro   0x0000000000000000      0xaa8 ./src/main.o
 .debug_macro   0x0000000000000000       0x65 ./src/main.o
 .debug_macro   0x0000000000000000       0x3b ./src/main.o
 .debug_macro   0x0000000000000000       0x22 ./src/main.o
 .debug_macro   0x0000000000000000       0x8e ./src/main.o
 .debug_macro   0x0000000000000000       0x51 ./src/main.o
 .debug_macro   0x0000000000000000      0x103 ./src/main.o
 .debug_macro   0x0000000000000000       0x6a ./src/main.o
 .debug_macro   0x0000000000000000      0x1df ./src/main.o
 .debug_macro   0x0000000000000000       0x34 ./src/main.o
 .debug_macro   0x0000000000000000       0x26 ./src/main.o
 .debug_macro   0x0000000000000000      0xe43 ./src/main.o
 .debug_macro   0x0000000000000000     0x800a ./src/main.o
 .debug_macro   0x0000000000000000       0xe8 ./src/main.o
 .debug_macro   0x0000000000000000       0x3a ./src/main.o
 .debug_macro   0x0000000000000000       0x46 ./src/main.o
 .group         0x0000000000000000        0xc ./src/syscalls.o
 .group         0x0000000000000000        0xc ./src/syscalls.o
 .group         0x0000000000000000        0xc ./src/syscalls.o
 .group         0x0000000000000000        0xc ./src/syscalls.o
 .group         0x0000000000000000        0xc ./src/syscalls.o
 .group         0x0000000000000000        0xc ./src/syscalls.o
 .group         0x0000000000000000        0xc ./src/syscalls.o
 .group         0x0000000000000000        0xc ./src/syscalls.o
 .group         0x0000000000000000        0xc ./src/syscalls.o
 .group         0x0000000000000000        0xc ./src/syscalls.o
 .group         0x0000000000000000        0xc ./src/syscalls.o
 .group         0x0000000000000000        0xc ./src/syscalls.o
 .group         0x0000000000000000        0xc ./src/syscalls.o
 .group         0x0000000000000000        0xc ./src/syscalls.o
 .group         0x0000000000000000        0xc ./src/syscalls.o
 .group         0x0000000000000000        0xc ./src/syscalls.o
 .group         0x0000000000000000        0xc ./src/syscalls.o
 .group         0x0000000000000000        0xc ./src/syscalls.o
 .group         0x0000000000000000        0xc ./src/syscalls.o
 .group         0x0000000000000000        0xc ./src/syscalls.o
 .group         0x0000000000000000        0xc ./src/syscalls.o
 .group         0x0000000000000000        0xc ./src/syscalls.o
 .group         0x0000000000000000        0xc ./src/syscalls.o
 .group         0x0000000000000000        0xc ./src/syscalls.o
 .group         0x0000000000000000        0xc ./src/syscalls.o
 .group         0x0000000000000000        0xc ./src/syscalls.o
 .group         0x0000000000000000        0xc ./src/syscalls.o
 .group         0x0000000000000000        0xc ./src/syscalls.o
 .group         0x0000000000000000        0xc ./src/syscalls.o
 .group         0x0000000000000000        0xc ./src/syscalls.o
 .group         0x0000000000000000        0xc ./src/syscalls.o
 .group         0x0000000000000000        0xc ./src/syscalls.o
 .group         0x0000000000000000        0xc ./src/syscalls.o
 .group         0x0000000000000000        0xc ./src/syscalls.o
 .group         0x0000000000000000        0xc ./src/syscalls.o
 .group         0x0000000000000000        0xc ./src/syscalls.o
 .group         0x0000000000000000        0xc ./src/syscalls.o
 .group         0x0000000000000000        0xc ./src/syscalls.o
 .group         0x0000000000000000        0xc ./src/syscalls.o
 .group         0x0000000000000000        0xc ./src/syscalls.o
 .group         0x0000000000000000        0xc ./src/syscalls.o
 .group         0x0000000000000000        0xc ./src/syscalls.o
 .group         0x0000000000000000        0xc ./src/syscalls.o
 .group         0x0000000000000000        0xc ./src/syscalls.o
 .group         0x0000000000000000        0xc ./src/syscalls.o
 .group         0x0000000000000000        0xc ./src/syscalls.o
 .group         0x0000000000000000        0xc ./src/syscalls.o
 .text          0x0000000000000000        0x0 ./src/syscalls.o
 .data          0x0000000000000000        0x4 ./src/syscalls.o
 .bss           0x0000000000000000        0x8 ./src/syscalls.o
 .text.initialise_monitor_handles
                0x0000000000000000        0xc ./src/syscalls.o
 .text._getpid  0x0000000000000000        0xe ./src/syscalls.o
 .text._kill    0x0000000000000000       0x20 ./src/syscalls.o
 .text._exit    0x0000000000000000       0x14 ./src/syscalls.o
 .text._read    0x0000000000000000       0x3a ./src/syscalls.o
 .text._write   0x0000000000000000       0x38 ./src/syscalls.o
 .text._sbrk    0x0000000000000000       0x58 ./src/syscalls.o
 .text._close   0x0000000000000000       0x16 ./src/syscalls.o
 .text._fstat   0x0000000000000000       0x1e ./src/syscalls.o
 .text._isatty  0x0000000000000000       0x14 ./src/syscalls.o
 .text._lseek   0x0000000000000000       0x18 ./src/syscalls.o
 .text._open    0x0000000000000000       0x1a ./src/syscalls.o
 .text._wait    0x0000000000000000       0x1e ./src/syscalls.o
 .text._unlink  0x0000000000000000       0x1e ./src/syscalls.o
 .text._times   0x0000000000000000       0x16 ./src/syscalls.o
 .text._stat    0x0000000000000000       0x1e ./src/syscalls.o
 .text._link    0x0000000000000000       0x20 ./src/syscalls.o
 .text._fork    0x0000000000000000       0x16 ./src/syscalls.o
 .text._execve  0x0000000000000000       0x22 ./src/syscalls.o
 .debug_info    0x0000000000000000     0x101b ./src/syscalls.o
 .debug_abbrev  0x0000000000000000      0x2ac ./src/syscalls.o
 .debug_aranges
                0x0000000000000000       0xb0 ./src/syscalls.o
 .debug_ranges  0x0000000000000000       0xa0 ./src/syscalls.o
 .debug_macro   0x0000000000000000      0x24c ./src/syscalls.o
 .debug_macro   0x0000000000000000      0xaa8 ./src/syscalls.o
 .debug_macro   0x0000000000000000       0x22 ./src/syscalls.o
 .debug_macro   0x0000000000000000       0x4c ./src/syscalls.o
 .debug_macro   0x0000000000000000       0x18 ./src/syscalls.o
 .debug_macro   0x0000000000000000       0x94 ./src/syscalls.o
 .debug_macro   0x0000000000000000       0x3c ./src/syscalls.o
 .debug_macro   0x0000000000000000       0x34 ./src/syscalls.o
 .debug_macro   0x0000000000000000       0x57 ./src/syscalls.o
 .debug_macro   0x0000000000000000      0x174 ./src/syscalls.o
 .debug_macro   0x0000000000000000      0x339 ./src/syscalls.o
 .debug_macro   0x0000000000000000       0x16 ./src/syscalls.o
 .debug_macro   0x0000000000000000       0x43 ./src/syscalls.o
 .debug_macro   0x0000000000000000       0x34 ./src/syscalls.o
 .debug_macro   0x0000000000000000       0x10 ./src/syscalls.o
 .debug_macro   0x0000000000000000       0x58 ./src/syscalls.o
 .debug_macro   0x0000000000000000       0x71 ./src/syscalls.o
 .debug_macro   0x0000000000000000       0x1c ./src/syscalls.o
 .debug_macro   0x0000000000000000      0x12a ./src/syscalls.o
 .debug_macro   0x0000000000000000       0x10 ./src/syscalls.o
 .debug_macro   0x0000000000000000       0x35 ./src/syscalls.o
 .debug_macro   0x0000000000000000       0x10 ./src/syscalls.o
 .debug_macro   0x0000000000000000       0x10 ./src/syscalls.o
 .debug_macro   0x0000000000000000       0x10 ./src/syscalls.o
 .debug_macro   0x0000000000000000       0x6a ./src/syscalls.o
 .debug_macro   0x0000000000000000       0x1c ./src/syscalls.o
 .debug_macro   0x0000000000000000       0x52 ./src/syscalls.o
 .debug_macro   0x0000000000000000       0x22 ./src/syscalls.o
 .debug_macro   0x0000000000000000       0x10 ./src/syscalls.o
 .debug_macro   0x0000000000000000       0x40 ./src/syscalls.o
 .debug_macro   0x0000000000000000       0xd5 ./src/syscalls.o
 .debug_macro   0x0000000000000000       0x1c ./src/syscalls.o
 .debug_macro   0x0000000000000000       0x3d ./src/syscalls.o
 .debug_macro   0x0000000000000000       0x35 ./src/syscalls.o
 .debug_macro   0x0000000000000000      0x12c ./src/syscalls.o
 .debug_macro   0x0000000000000000       0x16 ./src/syscalls.o
 .debug_macro   0x0000000000000000       0x16 ./src/syscalls.o
 .debug_macro   0x0000000000000000       0x29 ./src/syscalls.o
 .debug_macro   0x0000000000000000       0x10 ./src/syscalls.o
 .debug_macro   0x0000000000000000      0x241 ./src/syscalls.o
 .debug_macro   0x0000000000000000       0x1c ./src/syscalls.o
 .debug_macro   0x0000000000000000       0x10 ./src/syscalls.o
 .debug_macro   0x0000000000000000       0x10 ./src/syscalls.o
 .debug_macro   0x0000000000000000       0x16 ./src/syscalls.o
 .debug_macro   0x0000000000000000      0x145 ./src/syscalls.o
 .debug_macro   0x0000000000000000      0x189 ./src/syscalls.o
 .debug_macro   0x0000000000000000       0x16 ./src/syscalls.o
 .debug_macro   0x0000000000000000       0xce ./src/syscalls.o
 .debug_line    0x0000000000000000      0x83a ./src/syscalls.o
 .debug_str     0x0000000000000000     0x8ece ./src/syscalls.o
 .comment       0x0000000000000000       0x54 ./src/syscalls.o
 .debug_frame   0x0000000000000000      0x2d0 ./src/syscalls.o
 .ARM.attributes
                0x0000000000000000       0x2e ./src/syscalls.o
 .text          0x0000000000000000       0x14 ./startup/startup_stm32.o
 .data          0x0000000000000000        0x0 ./startup/startup_stm32.o
 .bss           0x0000000000000000        0x0 ./startup/startup_stm32.o
 .text          0x0000000000000000        0x0 c:/st/stm32cubeide_1.7.0/stm32cubeide/plugins/com.st.stm32cube.ide.mcu.externaltools.gnu-tools-for-stm32.9-2020-q2-update.win32_2.0.0.202105311346/tools/bin/../lib/gcc/arm-none-eabi/9.3.1/../../../../arm-none-eabi/lib/thumb/v7e-m/nofp\libc_nano.a(lib_a-errno.o)
 .data          0x0000000000000000        0x0 c:/st/stm32cubeide_1.7.0/stm32cubeide/plugins/com.st.stm32cube.ide.mcu.externaltools.gnu-tools-for-stm32.9-2020-q2-update.win32_2.0.0.202105311346/tools/bin/../lib/gcc/arm-none-eabi/9.3.1/../../../../arm-none-eabi/lib/thumb/v7e-m/nofp\libc_nano.a(lib_a-errno.o)
 .bss           0x0000000000000000        0x0 c:/st/stm32cubeide_1.7.0/stm32cubeide/plugins/com.st.stm32cube.ide.mcu.externaltools.gnu-tools-for-stm32.9-2020-q2-update.win32_2.0.0.202105311346/tools/bin/../lib/gcc/arm-none-eabi/9.3.1/../../../../arm-none-eabi/lib/thumb/v7e-m/nofp\libc_nano.a(lib_a-errno.o)
 .text.__errno  0x0000000000000000        0xc c:/st/stm32cubeide_1.7.0/stm32cubeide/plugins/com.st.stm32cube.ide.mcu.externaltools.gnu-tools-for-stm32.9-2020-q2-update.win32_2.0.0.202105311346/tools/bin/../lib/gcc/arm-none-eabi/9.3.1/../../../../arm-none-eabi/lib/thumb/v7e-m/nofp\libc_nano.a(lib_a-errno.o)
 .debug_frame   0x0000000000000000       0x20 c:/st/stm32cubeide_1.7.0/stm32cubeide/plugins/com.st.stm32cube.ide.mcu.externaltools.gnu-tools-for-stm32.9-2020-q2-update.win32_2.0.0.202105311346/tools/bin/../lib/gcc/arm-none-eabi/9.3.1/../../../../arm-none-eabi/lib/thumb/v7e-m/nofp\libc_nano.a(lib_a-errno.o)
 .ARM.attributes
                0x0000000000000000       0x2e c:/st/stm32cubeide_1.7.0/stm32cubeide/plugins/com.st.stm32cube.ide.mcu.externaltools.gnu-tools-for-stm32.9-2020-q2-update.win32_2.0.0.202105311346/tools/bin/../lib/gcc/arm-none-eabi/9.3.1/../../../../arm-none-eabi/lib/thumb/v7e-m/nofp\libc_nano.a(lib_a-errno.o)
 .text          0x0000000000000000        0x0 c:/st/stm32cubeide_1.7.0/stm32cubeide/plugins/com.st.stm32cube.ide.mcu.externaltools.gnu-tools-for-stm32.9-2020-q2-update.win32_2.0.0.202105311346/tools/bin/../lib/gcc/arm-none-eabi/9.3.1/../../../../arm-none-eabi/lib/thumb/v7e-m/nofp\libc_nano.a(lib_a-exit.o)
 .data          0x0000000000000000        0x0 c:/st/stm32cubeide_1.7.0/stm32cubeide/plugins/com.st.stm32cube.ide.mcu.externaltools.gnu-tools-for-stm32.9-2020-q2-update.win32_2.0.0.202105311346/tools/bin/../lib/gcc/arm-none-eabi/9.3.1/../../../../arm-none-eabi/lib/thumb/v7e-m/nofp\libc_nano.a(lib_a-exit.o)
 .bss           0x0000000000000000        0x0 c:/st/stm32cubeide_1.7.0/stm32cubeide/plugins/com.st.stm32cube.ide.mcu.externaltools.gnu-tools-for-stm32.9-2020-q2-update.win32_2.0.0.202105311346/tools/bin/../lib/gcc/arm-none-eabi/9.3.1/../../../../arm-none-eabi/lib/thumb/v7e-m/nofp\libc_nano.a(lib_a-exit.o)
 .text.exit     0x0000000000000000       0x28 c:/st/stm32cubeide_1.7.0/stm32cubeide/plugins/com.st.stm32cube.ide.mcu.externaltools.gnu-tools-for-stm32.9-2020-q2-update.win32_2.0.0.202105311346/tools/bin/../lib/gcc/arm-none-eabi/9.3.1/../../../../arm-none-eabi/lib/thumb/v7e-m/nofp\libc_nano.a(lib_a-exit.o)
 .debug_frame   0x0000000000000000       0x28 c:/st/stm32cubeide_1.7.0/stm32cubeide/plugins/com.st.stm32cube.ide.mcu.externaltools.gnu-tools-for-stm32.9-2020-q2-update.win32_2.0.0.202105311346/tools/bin/../lib/gcc/arm-none-eabi/9.3.1/../../../../arm-none-eabi/lib/thumb/v7e-m/nofp\libc_nano.a(lib_a-exit.o)
 .ARM.attributes
                0x0000000000000000       0x2e c:/st/stm32cubeide_1.7.0/stm32cubeide/plugins/com.st.stm32cube.ide.mcu.externaltools.gnu-tools-for-stm32.9-2020-q2-update.win32_2.0.0.202105311346/tools/bin/../lib/gcc/arm-none-eabi/9.3.1/../../../../arm-none-eabi/lib/thumb/v7e-m/nofp\libc_nano.a(lib_a-exit.o)
 .text          0x0000000000000000        0x0 c:/st/stm32cubeide_1.7.0/stm32cubeide/plugins/com.st.stm32cube.ide.mcu.externaltools.gnu-tools-for-stm32.9-2020-q2-update.win32_2.0.0.202105311346/tools/bin/../lib/gcc/arm-none-eabi/9.3.1/../../../../arm-none-eabi/lib/thumb/v7e-m/nofp\libc_nano.a(lib_a-impure.o)
 .data          0x0000000000000000        0x0 c:/st/stm32cubeide_1.7.0/stm32cubeide/plugins/com.st.stm32cube.ide.mcu.externaltools.gnu-tools-for-stm32.9-2020-q2-update.win32_2.0.0.202105311346/tools/bin/../lib/gcc/arm-none-eabi/9.3.1/../../../../arm-none-eabi/lib/thumb/v7e-m/nofp\libc_nano.a(lib_a-impure.o)
 .bss           0x0000000000000000        0x0 c:/st/stm32cubeide_1.7.0/stm32cubeide/plugins/com.st.stm32cube.ide.mcu.externaltools.gnu-tools-for-stm32.9-2020-q2-update.win32_2.0.0.202105311346/tools/bin/../lib/gcc/arm-none-eabi/9.3.1/../../../../arm-none-eabi/lib/thumb/v7e-m/nofp\libc_nano.a(lib_a-impure.o)
 .data._impure_ptr
                0x0000000000000000        0x4 c:/st/stm32cubeide_1.7.0/stm32cubeide/plugins/com.st.stm32cube.ide.mcu.externaltools.gnu-tools-for-stm32.9-2020-q2-update.win32_2.0.0.202105311346/tools/bin/../lib/gcc/arm-none-eabi/9.3.1/../../../../arm-none-eabi/lib/thumb/v7e-m/nofp\libc_nano.a(lib_a-impure.o)
 .data.impure_data
                0x0000000000000000       0x60 c:/st/stm32cubeide_1.7.0/stm32cubeide/plugins/com.st.stm32cube.ide.mcu.externaltools.gnu-tools-for-stm32.9-2020-q2-update.win32_2.0.0.202105311346/tools/bin/../lib/gcc/arm-none-eabi/9.3.1/../../../../arm-none-eabi/lib/thumb/v7e-m/nofp\libc_nano.a(lib_a-impure.o)
 .rodata._global_impure_ptr
                0x0000000000000000        0x4 c:/st/stm32cubeide_1.7.0/stm32cubeide/plugins/com.st.stm32cube.ide.mcu.externaltools.gnu-tools-for-stm32.9-2020-q2-update.win32_2.0.0.202105311346/tools/bin/../lib/gcc/arm-none-eabi/9.3.1/../../../../arm-none-eabi/lib/thumb/v7e-m/nofp\libc_nano.a(lib_a-impure.o)
 .ARM.attributes
                0x0000000000000000       0x2e c:/st/stm32cubeide_1.7.0/stm32cubeide/plugins/com.st.stm32cube.ide.mcu.externaltools.gnu-tools-for-stm32.9-2020-q2-update.win32_2.0.0.202105311346/tools/bin/../lib/gcc/arm-none-eabi/9.3.1/../../../../arm-none-eabi/lib/thumb/v7e-m/nofp\libc_nano.a(lib_a-impure.o)
 .text          0x0000000000000000        0x0 c:/st/stm32cubeide_1.7.0/stm32cubeide/plugins/com.st.stm32cube.ide.mcu.externaltools.gnu-tools-for-stm32.9-2020-q2-update.win32_2.0.0.202105311346/tools/bin/../lib/gcc/arm-none-eabi/9.3.1/../../../../arm-none-eabi/lib/thumb/v7e-m/nofp\libc_nano.a(lib_a-init.o)
 .data          0x0000000000000000        0x0 c:/st/stm32cubeide_1.7.0/stm32cubeide/plugins/com.st.stm32cube.ide.mcu.externaltools.gnu-tools-for-stm32.9-2020-q2-update.win32_2.0.0.202105311346/tools/bin/../lib/gcc/arm-none-eabi/9.3.1/../../../../arm-none-eabi/lib/thumb/v7e-m/nofp\libc_nano.a(lib_a-init.o)
 .bss           0x0000000000000000        0x0 c:/st/stm32cubeide_1.7.0/stm32cubeide/plugins/com.st.stm32cube.ide.mcu.externaltools.gnu-tools-for-stm32.9-2020-q2-update.win32_2.0.0.202105311346/tools/bin/../lib/gcc/arm-none-eabi/9.3.1/../../../../arm-none-eabi/lib/thumb/v7e-m/nofp\libc_nano.a(lib_a-init.o)
 .text          0x0000000000000000        0x0 c:/st/stm32cubeide_1.7.0/stm32cubeide/plugins/com.st.stm32cube.ide.mcu.externaltools.gnu-tools-for-stm32.9-2020-q2-update.win32_2.0.0.202105311346/tools/bin/../lib/gcc/arm-none-eabi/9.3.1/../../../../arm-none-eabi/lib/thumb/v7e-m/nofp\libc_nano.a(lib_a-memset.o)
 .data          0x0000000000000000        0x0 c:/st/stm32cubeide_1.7.0/stm32cubeide/plugins/com.st.stm32cube.ide.mcu.externaltools.gnu-tools-for-stm32.9-2020-q2-update.win32_2.0.0.202105311346/tools/bin/../lib/gcc/arm-none-eabi/9.3.1/../../../../arm-none-eabi/lib/thumb/v7e-m/nofp\libc_nano.a(lib_a-memset.o)
 .bss           0x0000000000000000        0x0 c:/st/stm32cubeide_1.7.0/stm32cubeide/plugins/com.st.stm32cube.ide.mcu.externaltools.gnu-tools-for-stm32.9-2020-q2-update.win32_2.0.0.202105311346/tools/bin/../lib/gcc/arm-none-eabi/9.3.1/../../../../arm-none-eabi/lib/thumb/v7e-m/nofp\libc_nano.a(lib_a-memset.o)
 .text.memset   0x0000000000000000       0x10 c:/st/stm32cubeide_1.7.0/stm32cubeide/plugins/com.st.stm32cube.ide.mcu.externaltools.gnu-tools-for-stm32.9-2020-q2-update.win32_2.0.0.202105311346/tools/bin/../lib/gcc/arm-none-eabi/9.3.1/../../../../arm-none-eabi/lib/thumb/v7e-m/nofp\libc_nano.a(lib_a-memset.o)
 .debug_frame   0x0000000000000000       0x20 c:/st/stm32cubeide_1.7.0/stm32cubeide/plugins/com.st.stm32cube.ide.mcu.externaltools.gnu-tools-for-stm32.9-2020-q2-update.win32_2.0.0.202105311346/tools/bin/../lib/gcc/arm-none-eabi/9.3.1/../../../../arm-none-eabi/lib/thumb/v7e-m/nofp\libc_nano.a(lib_a-memset.o)
 .ARM.attributes
                0x0000000000000000       0x2e c:/st/stm32cubeide_1.7.0/stm32cubeide/plugins/com.st.stm32cube.ide.mcu.externaltools.gnu-tools-for-stm32.9-2020-q2-update.win32_2.0.0.202105311346/tools/bin/../lib/gcc/arm-none-eabi/9.3.1/../../../../arm-none-eabi/lib/thumb/v7e-m/nofp\libc_nano.a(lib_a-memset.o)
 .data          0x0000000000000000        0x0 c:/st/stm32cubeide_1.7.0/stm32cubeide/plugins/com.st.stm32cube.ide.mcu.externaltools.gnu-tools-for-stm32.9-2020-q2-update.win32_2.0.0.202105311346/tools/bin/../lib/gcc/arm-none-eabi/9.3.1/thumb/v7e-m/nofp\libgcc.a(_arm_mulsf3.o)
 .bss           0x0000000000000000        0x0 c:/st/stm32cubeide_1.7.0/stm32cubeide/plugins/com.st.stm32cube.ide.mcu.externaltools.gnu-tools-for-stm32.9-2020-q2-update.win32_2.0.0.202105311346/tools/bin/../lib/gcc/arm-none-eabi/9.3.1/thumb/v7e-m/nofp\libgcc.a(_arm_mulsf3.o)
 .data          0x0000000000000000        0x0 c:/st/stm32cubeide_1.7.0/stm32cubeide/plugins/com.st.stm32cube.ide.mcu.externaltools.gnu-tools-for-stm32.9-2020-q2-update.win32_2.0.0.202105311346/tools/bin/../lib/gcc/arm-none-eabi/9.3.1/thumb/v7e-m/nofp\libgcc.a(_arm_addsubsf3.o)
 .bss           0x0000000000000000        0x0 c:/st/stm32cubeide_1.7.0/stm32cubeide/plugins/com.st.stm32cube.ide.mcu.externaltools.gnu-tools-for-stm32.9-2020-q2-update.win32_2.0.0.202105311346/tools/bin/../lib/gcc/arm-none-eabi/9.3.1/thumb/v7e-m/nofp\libgcc.a(_arm_addsubsf3.o)
 .data          0x0000000000000000        0x0 c:/st/stm32cubeide_1.7.0/stm32cubeide/plugins/com.st.stm32cube.ide.mcu.externaltools.gnu-tools-for-stm32.9-2020-q2-update.win32_2.0.0.202105311346/tools/bin/../lib/gcc/arm-none-eabi/9.3.1/thumb/v7e-m/nofp\libgcc.a(_arm_cmpsf2.o)
 .bss           0x0000000000000000        0x0 c:/st/stm32cubeide_1.7.0/stm32cubeide/plugins/com.st.stm32cube.ide.mcu.externaltools.gnu-tools-for-stm32.9-2020-q2-update.win32_2.0.0.202105311346/tools/bin/../lib/gcc/arm-none-eabi/9.3.1/thumb/v7e-m/nofp\libgcc.a(_arm_cmpsf2.o)
 .data          0x0000000000000000        0x0 c:/st/stm32cubeide_1.7.0/stm32cubeide/plugins/com.st.stm32cube.ide.mcu.externaltools.gnu-tools-for-stm32.9-2020-q2-update.win32_2.0.0.202105311346/tools/bin/../lib/gcc/arm-none-eabi/9.3.1/thumb/v7e-m/nofp\libgcc.a(_arm_fixsfsi.o)
 .bss           0x0000000000000000        0x0 c:/st/stm32cubeide_1.7.0/stm32cubeide/plugins/com.st.stm32cube.ide.mcu.externaltools.gnu-tools-for-stm32.9-2020-q2-update.win32_2.0.0.202105311346/tools/bin/../lib/gcc/arm-none-eabi/9.3.1/thumb/v7e-m/nofp\libgcc.a(_arm_fixsfsi.o)
 .text          0x0000000000000000        0x0 c:/st/stm32cubeide_1.7.0/stm32cubeide/plugins/com.st.stm32cube.ide.mcu.externaltools.gnu-tools-for-stm32.9-2020-q2-update.win32_2.0.0.202105311346/tools/bin/../lib/gcc/arm-none-eabi/9.3.1/thumb/v7e-m/nofp/crtend.o
 .data          0x0000000000000000        0x0 c:/st/stm32cubeide_1.7.0/stm32cubeide/plugins/com.st.stm32cube.ide.mcu.externaltools.gnu-tools-for-stm32.9-2020-q2-update.win32_2.0.0.202105311346/tools/bin/../lib/gcc/arm-none-eabi/9.3.1/thumb/v7e-m/nofp/crtend.o
 .bss           0x0000000000000000        0x0 c:/st/stm32cubeide_1.7.0/stm32cubeide/plugins/com.st.stm32cube.ide.mcu.externaltools.gnu-tools-for-stm32.9-2020-q2-update.win32_2.0.0.202105311346/tools/bin/../lib/gcc/arm-none-eabi/9.3.1/thumb/v7e-m/nofp/crtend.o
 .eh_frame      0x0000000000000000        0x4 c:/st/stm32cubeide_1.7.0/stm32cubeide/plugins/com.st.stm32cube.ide.mcu.externaltools.gnu-tools-for-stm32.9-2020-q2-update.win32_2.0.0.202105311346/tools/bin/../lib/gcc/arm-none-eabi/9.3.1/thumb/v7e-m/nofp/crtend.o
 .ARM.attributes
                0x0000000000000000       0x2e c:/st/stm32cubeide_1.7.0/stm32cubeide/plugins/com.st.stm32cube.ide.mcu.externaltools.gnu-tools-for-stm32.9-2020-q2-update.win32_2.0.0.202105311346/tools/bin/../lib/gcc/arm-none-eabi/9.3.1/thumb/v7e-m/nofp/crtend.o
 .text          0x0000000000000000        0x0 c:/st/stm32cubeide_1.7.0/stm32cubeide/plugins/com.st.stm32cube.ide.mcu.externaltools.gnu-tools-for-stm32.9-2020-q2-update.win32_2.0.0.202105311346/tools/bin/../lib/gcc/arm-none-eabi/9.3.1/thumb/v7e-m/nofp/crtn.o
 .data          0x0000000000000000        0x0 c:/st/stm32cubeide_1.7.0/stm32cubeide/plugins/com.st.stm32cube.ide.mcu.externaltools.gnu-tools-for-stm32.9-2020-q2-update.win32_2.0.0.202105311346/tools/bin/../lib/gcc/arm-none-eabi/9.3.1/thumb/v7e-m/nofp/crtn.o
 .bss           0x0000000000000000        0x0 c:/st/stm32cubeide_1.7.0/stm32cubeide/plugins/com.st.stm32cube.ide.mcu.externaltools.gnu-tools-for-stm32.9-2020-q2-update.win32_2.0.0.202105311346/tools/bin/../lib/gcc/arm-none-eabi/9.3.1/thumb/v7e-m/nofp/crtn.o

Memory Configuration

Name             Origin             Length             Attributes
RAM              0x0000000020000000 0x0000000000010000 xrw
ROM              0x0000000008000000 0x0000000000040000 xr
*default*        0x0000000000000000 0xffffffffffffffff

Linker script and memory map

LOAD c:/st/stm32cubeide_1.7.0/stm32cubeide/plugins/com.st.stm32cube.ide.mcu.externaltools.gnu-tools-for-stm32.9-2020-q2-update.win32_2.0.0.202105311346/tools/bin/../lib/gcc/arm-none-eabi/9.3.1/thumb/v7e-m/nofp/crti.o
LOAD c:/st/stm32cubeide_1.7.0/stm32cubeide/plugins/com.st.stm32cube.ide.mcu.externaltools.gnu-tools-for-stm32.9-2020-q2-update.win32_2.0.0.202105311346/tools/bin/../lib/gcc/arm-none-eabi/9.3.1/thumb/v7e-m/nofp/crtbegin.o
LOAD c:/st/stm32cubeide_1.7.0/stm32cubeide/plugins/com.st.stm32cube.ide.mcu.externaltools.gnu-tools-for-stm32.9-2020-q2-update.win32_2.0.0.202105311346/tools/bin/../lib/gcc/arm-none-eabi/9.3.1/../../../../arm-none-eabi/lib/thumb/v7e-m/nofp/crt0.o
LOAD ./Drivers/src/GPIO.o
LOAD ./Drivers/src/PollDataClient.o
LOAD ./Drivers/src/PollerTimer.o
LOAD ./Drivers/src/SPI.o
LOAD ./Drivers/src/TC72.o
LOAD ./Drivers/src/USART.o
LOAD ./Drivers/src/Util.o
LOAD ./Drivers/src/device.o
LOAD ./Drivers/src/poller.o
LOAD ./Drivers/src/system_stm32f4xx.o
LOAD ./src/main.o
LOAD ./src/syscalls.o
LOAD ./startup/startup_stm32.o
START GROUP
LOAD c:/st/stm32cubeide_1.7.0/stm32cubeide/plugins/com.st.stm32cube.ide.mcu.externaltools.gnu-tools-for-stm32.9-2020-q2-update.win32_2.0.0.202105311346/tools/bin/../lib/gcc/arm-none-eabi/9.3.1/../../../../arm-none-eabi/lib/thumb/v7e-m/nofp\libc_nano.a
LOAD c:/st/stm32cubeide_1.7.0/stm32cubeide/plugins/com.st.stm32cube.ide.mcu.externaltools.gnu-tools-for-stm32.9-2020-q2-update.win32_2.0.0.202105311346/tools/bin/../lib/gcc/arm-none-eabi/9.3.1/../../../../arm-none-eabi/lib/thumb/v7e-m/nofp\libm.a
END GROUP
START GROUP
LOAD c:/st/stm32cubeide_1.7.0/stm32cubeide/plugins/com.st.stm32cube.ide.mcu.externaltools.gnu-tools-for-stm32.9-2020-q2-update.win32_2.0.0.202105311346/tools/bin/../lib/gcc/arm-none-eabi/9.3.1/thumb/v7e-m/nofp\libgcc.a
LOAD c:/st/stm32cubeide_1.7.0/stm32cubeide/plugins/com.st.stm32cube.ide.mcu.externaltools.gnu-tools-for-stm32.9-2020-q2-update.win32_2.0.0.202105311346/tools/bin/../lib/gcc/arm-none-eabi/9.3.1/../../../../arm-none-eabi/lib/thumb/v7e-m/nofp\libc_nano.a
END GROUP
START GROUP
LOAD c:/st/stm32cubeide_1.7.0/stm32cubeide/plugins/com.st.stm32cube.ide.mcu.externaltools.gnu-tools-for-stm32.9-2020-q2-update.win32_2.0.0.202105311346/tools/bin/../lib/gcc/arm-none-eabi/9.3.1/thumb/v7e-m/nofp\libgcc.a
LOAD c:/st/stm32cubeide_1.7.0/stm32cubeide/plugins/com.st.stm32cube.ide.mcu.externaltools.gnu-tools-for-stm32.9-2020-q2-update.win32_2.0.0.202105311346/tools/bin/../lib/gcc/arm-none-eabi/9.3.1/../../../../arm-none-eabi/lib/thumb/v7e-m/nofp\libc_nano.a
LOAD c:/st/stm32cubeide_1.7.0/stm32cubeide/plugins/com.st.stm32cube.ide.mcu.externaltools.gnu-tools-for-stm32.9-2020-q2-update.win32_2.0.0.202105311346/tools/bin/../lib/gcc/arm-none-eabi/9.3.1/../../../../arm-none-eabi/lib/thumb/v7e-m/nofp\libnosys.a
END GROUP
START GROUP
LOAD c:/st/stm32cubeide_1.7.0/stm32cubeide/plugins/com.st.stm32cube.ide.mcu.externaltools.gnu-tools-for-stm32.9-2020-q2-update.win32_2.0.0.202105311346/tools/bin/../lib/gcc/arm-none-eabi/9.3.1/thumb/v7e-m/nofp\libgcc.a
LOAD c:/st/stm32cubeide_1.7.0/stm32cubeide/plugins/com.st.stm32cube.ide.mcu.externaltools.gnu-tools-for-stm32.9-2020-q2-update.win32_2.0.0.202105311346/tools/bin/../lib/gcc/arm-none-eabi/9.3.1/../../../../arm-none-eabi/lib/thumb/v7e-m/nofp\libc_nano.a
LOAD c:/st/stm32cubeide_1.7.0/stm32cubeide/plugins/com.st.stm32cube.ide.mcu.externaltools.gnu-tools-for-stm32.9-2020-q2-update.win32_2.0.0.202105311346/tools/bin/../lib/gcc/arm-none-eabi/9.3.1/../../../../arm-none-eabi/lib/thumb/v7e-m/nofp\libnosys.a
END GROUP
LOAD c:/st/stm32cubeide_1.7.0/stm32cubeide/plugins/com.st.stm32cube.ide.mcu.externaltools.gnu-tools-for-stm32.9-2020-q2-update.win32_2.0.0.202105311346/tools/bin/../lib/gcc/arm-none-eabi/9.3.1/thumb/v7e-m/nofp/crtend.o
LOAD c:/st/stm32cubeide_1.7.0/stm32cubeide/plugins/com.st.stm32cube.ide.mcu.externaltools.gnu-tools-for-stm32.9-2020-q2-update.win32_2.0.0.202105311346/tools/bin/../lib/gcc/arm-none-eabi/9.3.1/thumb/v7e-m/nofp/crtn.o
                0x0000000020010000                _estack = 0x20010000
                0x0000000000000000                _Min_Heap_Size = 0x0
                0x0000000000000400                _Min_Stack_Size = 0x400

.isr_vector     0x0000000008000000      0x194
                0x0000000008000000                . = ALIGN (0x4)
 *(.isr_vector)
 .isr_vector    0x0000000008000000      0x194 ./startup/startup_stm32.o
                0x0000000008000000                g_pfnVectors
                0x0000000008000194                . = ALIGN (0x4)

.text           0x0000000008000194      0xf5c
                0x0000000008000194                . = ALIGN (0x4)
 *(.text)
 .text          0x0000000008000194       0x40 c:/st/stm32cubeide_1.7.0/stm32cubeide/plugins/com.st.stm32cube.ide.mcu.externaltools.gnu-tools-for-stm32.9-2020-q2-update.win32_2.0.0.202105311346/tools/bin/../lib/gcc/arm-none-eabi/9.3.1/thumb/v7e-m/nofp/crtbegin.o
 .text          0x00000000080001d4      0x168 c:/st/stm32cubeide_1.7.0/stm32cubeide/plugins/com.st.stm32cube.ide.mcu.externaltools.gnu-tools-for-stm32.9-2020-q2-update.win32_2.0.0.202105311346/tools/bin/../lib/gcc/arm-none-eabi/9.3.1/thumb/v7e-m/nofp\libgcc.a(_arm_mulsf3.o)
                0x00000000080001d4                __aeabi_fmul
                0x00000000080001d4                __mulsf3
 .text          0x000000000800033c      0x21c c:/st/stm32cubeide_1.7.0/stm32cubeide/plugins/com.st.stm32cube.ide.mcu.externaltools.gnu-tools-for-stm32.9-2020-q2-update.win32_2.0.0.202105311346/tools/bin/../lib/gcc/arm-none-eabi/9.3.1/thumb/v7e-m/nofp\libgcc.a(_arm_addsubsf3.o)
                0x000000000800033c                __aeabi_frsub
                0x0000000008000344                __subsf3
                0x0000000008000344                __aeabi_fsub
                0x0000000008000348                __aeabi_fadd
                0x0000000008000348                __addsf3
                0x00000000080004a8                __aeabi_ui2f
                0x00000000080004a8                __floatunsisf
                0x00000000080004b0                __aeabi_i2f
                0x00000000080004b0                __floatsisf
                0x00000000080004cc                __aeabi_ul2f
                0x00000000080004cc                __floatundisf
                0x00000000080004dc                __aeabi_l2f
                0x00000000080004dc                __floatdisf
 .text          0x0000000008000558       0xec c:/st/stm32cubeide_1.7.0/stm32cubeide/plugins/com.st.stm32cube.ide.mcu.externaltools.gnu-tools-for-stm32.9-2020-q2-update.win32_2.0.0.202105311346/tools/bin/../lib/gcc/arm-none-eabi/9.3.1/thumb/v7e-m/nofp\libgcc.a(_arm_cmpsf2.o)
                0x0000000008000558                __gesf2
                0x0000000008000558                __gtsf2
                0x0000000008000560                __lesf2
                0x0000000008000560                __ltsf2
                0x0000000008000568                __nesf2
                0x0000000008000568                __eqsf2
                0x0000000008000568                __cmpsf2
                0x00000000080005c8                __aeabi_cfrcmple
                0x00000000080005d0                __aeabi_cfcmpeq
                0x00000000080005d0                __aeabi_cfcmple
                0x00000000080005e0                __aeabi_fcmpeq
                0x00000000080005f4                __aeabi_fcmplt
                0x0000000008000608                __aeabi_fcmple
                0x000000000800061c                __aeabi_fcmpge
                0x0000000008000630                __aeabi_fcmpgt
 .text          0x0000000008000644       0x4c c:/st/stm32cubeide_1.7.0/stm32cubeide/plugins/com.st.stm32cube.ide.mcu.externaltools.gnu-tools-for-stm32.9-2020-q2-update.win32_2.0.0.202105311346/tools/bin/../lib/gcc/arm-none-eabi/9.3.1/thumb/v7e-m/nofp\libgcc.a(_arm_fixsfsi.o)
                0x0000000008000644                __aeabi_f2iz
                0x0000000008000644                __fixsfsi
 *(.text*)
 .text.GPIO_EnableClock
                0x0000000008000690       0x2c ./Drivers/src/GPIO.o
                0x0000000008000690                GPIO_EnableClock
 .text.GPIO_Init
                0x00000000080006bc      0x180 ./Drivers/src/GPIO.o
                0x00000000080006bc                GPIO_Init
 .text.GPIO_WritePin
                0x000000000800083c       0xcc ./Drivers/src/GPIO.o
                0x000000000800083c                GPIO_WritePin
 .text.Handle_data
                0x0000000008000908      0x158 ./Drivers/src/PollDataClient.o
                0x0000000008000908                Handle_data
 .text.NVIC_EnableIRQ
                0x0000000008000a60       0x30 ./Drivers/src/PollerTimer.o
 .text.StartTimer
                0x0000000008000a90       0x4c ./Drivers/src/PollerTimer.o
                0x0000000008000a90                StartTimer
 .text.EnableInterrupt
                0x0000000008000adc       0x22 ./Drivers/src/PollerTimer.o
                0x0000000008000adc                EnableInterrupt
 .text.CallPollingFunction
                0x0000000008000afe        0xc ./Drivers/src/PollerTimer.o
                0x0000000008000afe                CallPollingFunction
 *fill*         0x0000000008000b0a        0x2 
 .text.SPI_EnableClock
                0x0000000008000b0c       0x1c ./Drivers/src/SPI.o
                0x0000000008000b0c                SPI_EnableClock
 .text.SPI_Init
                0x0000000008000b28       0x70 ./Drivers/src/SPI.o
                0x0000000008000b28                SPI_Init
 .text.SPI_TransmitRecieveByte
                0x0000000008000b98       0x48 ./Drivers/src/SPI.o
                0x0000000008000b98                SPI_TransmitRecieveByte
 .text.TC72_Init
                0x0000000008000be0       0x1a ./Drivers/src/TC72.o
                0x0000000008000be0                TC72_Init
 .text.TC72_RegisterWrite
                0x0000000008000bfa       0x2e ./Drivers/src/TC72.o
                0x0000000008000bfa                TC72_RegisterWrite
 .text.TC72_RegisterRead
                0x0000000008000c28       0x30 ./Drivers/src/TC72.o
                0x0000000008000c28                TC72_RegisterRead
 .text.USART_EnableClock
                0x0000000008000c58       0x1c ./Drivers/src/USART.o
                0x0000000008000c58                USART_EnableClock
 .text.USART_INIT
                0x0000000008000c74       0x6c ./Drivers/src/USART.o
                0x0000000008000c74                USART_INIT
 .text.USART_TRANSMIT
                0x0000000008000ce0       0x40 ./Drivers/src/USART.o
                0x0000000008000ce0                USART_TRANSMIT
 .text.Get_Data
                0x0000000008000d20       0xd4 ./Drivers/src/device.o
                0x0000000008000d20                Get_Data
 .text.Poll     0x0000000008000df4       0x6c ./Drivers/src/poller.o
                0x0000000008000df4                Poll
 .text.StartPolling
                0x0000000008000e60       0x18 ./Drivers/src/poller.o
                0x0000000008000e60                StartPolling
 .text.SetPollingTime
                0x0000000008000e78       0x2c ./Drivers/src/poller.o
                0x0000000008000e78                SetPollingTime
 .text.floatToStr
                0x0000000008000ea4       0xd8 ./Drivers/src/poller.o
                0x0000000008000ea4                floatToStr
 .text.SystemInit
                0x0000000008000f7c        0xc ./Drivers/src/system_stm32f4xx.o
                0x0000000008000f7c                SystemInit
 .text.main     0x0000000008000f88       0x94 ./src/main.o
                0x0000000008000f88                main
 .text.TIM2_IRQHandler
                0x000000000800101c       0x20 ./src/main.o
                0x000000000800101c                TIM2_IRQHandler
 .text.Reset_Handler
                0x000000000800103c       0x50 ./startup/startup_stm32.o
                0x000000000800103c                Reset_Handler
 .text.Default_Handler
                0x000000000800108c        0x2 ./startup/startup_stm32.o
                0x000000000800108c                RTC_Alarm_IRQHandler
                0x000000000800108c                EXTI2_IRQHandler
                0x000000000800108c                DebugMon_Handler
                0x000000000800108c                SPI4_IRQHandler
                0x000000000800108c                TIM1_CC_IRQHandler
                0x000000000800108c                HardFault_Handler
                0x000000000800108c                SysTick_Handler
                0x000000000800108c                PVD_IRQHandler
                0x000000000800108c                SDIO_IRQHandler
                0x000000000800108c                TAMP_STAMP_IRQHandler
                0x000000000800108c                PendSV_Handler
                0x000000000800108c                NMI_Handler
                0x000000000800108c                EXTI3_IRQHandler
                0x000000000800108c                TIM1_UP_TIM10_IRQHandler
                0x000000000800108c                I2C3_ER_IRQHandler
                0x000000000800108c                EXTI0_IRQHandler
                0x000000000800108c                I2C2_EV_IRQHandler
                0x000000000800108c                FPU_IRQHandler
                0x000000000800108c                UsageFault_Handler
                0x000000000800108c                SPI1_IRQHandler
                0x000000000800108c                TIM1_BRK_TIM9_IRQHandler
                0x000000000800108c                I2C1_EV_IRQHandler
                0x000000000800108c                TIM3_IRQHandler
                0x000000000800108c                RCC_IRQHandler
                0x000000000800108c                Default_Handler
                0x000000000800108c                EXTI15_10_IRQHandler
                0x000000000800108c                ADC_IRQHandler
                0x000000000800108c                I2C3_EV_IRQHandler
                0x000000000800108c                EXTI9_5_IRQHandler
                0x000000000800108c                RTC_WKUP_IRQHandler
                0x000000000800108c                SPI2_IRQHandler
                0x000000000800108c                MemManage_Handler
                0x000000000800108c                SVC_Handler
                0x000000000800108c                EXTI4_IRQHandler
                0x000000000800108c                OTG_FS_WKUP_IRQHandler
                0x000000000800108c                TIM1_TRG_COM_TIM11_IRQHandler
                0x000000000800108c                EXTI1_IRQHandler
                0x000000000800108c                I2C2_ER_IRQHandler
                0x000000000800108c                FLASH_IRQHandler
                0x000000000800108c                BusFault_Handler
                0x000000000800108c                OTG_FS_IRQHandler
                0x000000000800108c                SPI3_IRQHandler
                0x000000000800108c                I2C1_ER_IRQHandler
 *fill*         0x000000000800108e        0x2 
 .text.__libc_init_array
                0x0000000008001090       0x48 c:/st/stm32cubeide_1.7.0/stm32cubeide/plugins/com.st.stm32cube.ide.mcu.externaltools.gnu-tools-for-stm32.9-2020-q2-update.win32_2.0.0.202105311346/tools/bin/../lib/gcc/arm-none-eabi/9.3.1/../../../../arm-none-eabi/lib/thumb/v7e-m/nofp\libc_nano.a(lib_a-init.o)
                0x0000000008001090                __libc_init_array
 *(.glue_7)
 .glue_7        0x00000000080010d8        0x0 linker stubs
 *(.glue_7t)
 .glue_7t       0x00000000080010d8        0x0 linker stubs
 *(.eh_frame)
 .eh_frame      0x00000000080010d8        0x0 c:/st/stm32cubeide_1.7.0/stm32cubeide/plugins/com.st.stm32cube.ide.mcu.externaltools.gnu-tools-for-stm32.9-2020-q2-update.win32_2.0.0.202105311346/tools/bin/../lib/gcc/arm-none-eabi/9.3.1/thumb/v7e-m/nofp/crtbegin.o
 *(.init)
 .init          0x00000000080010d8        0x4 c:/st/stm32cubeide_1.7.0/stm32cubeide/plugins/com.st.stm32cube.ide.mcu.externaltools.gnu-tools-for-stm32.9-2020-q2-update.win32_2.0.0.202105311346/tools/bin/../lib/gcc/arm-none-eabi/9.3.1/thumb/v7e-m/nofp/crti.o
                0x00000000080010d8                _init
 .init          0x00000000080010dc        0x8 c:/st/stm32cubeide_1.7.0/stm32cubeide/plugins/com.st.stm32cube.ide.mcu.externaltools.gnu-tools-for-stm32.9-2020-q2-update.win32_2.0.0.202105311346/tools/bin/../lib/gcc/arm-none-eabi/9.3.1/thumb/v7e-m/nofp/crtn.o
 *(.fini)
 .fini          0x00000000080010e4        0x4 c:/st/stm32cubeide_1.7.0/stm32cubeide/plugins/com.st.stm32cube.ide.mcu.externaltools.gnu-tools-for-stm32.9-2020-q2-update.win32_2.0.0.202105311346/tools/bin/../lib/gcc/arm-none-eabi/9.3.1/thumb/v7e-m/nofp/crti.o
                0x00000000080010e4                _fini
 .fini          0x00000000080010e8        0x8 c:/st/stm32cubeide_1.7.0/stm32cubeide/plugins/com.st.stm32cube.ide.mcu.externaltools.gnu-tools-for-stm32.9-2020-q2-update.win32_2.0.0.202105311346/tools/bin/../lib/gcc/arm-none-eabi/9.3.1/thumb/v7e-m/nofp/crtn.o
                0x00000000080010f0                . = ALIGN (0x4)
                0x00000000080010f0                _etext = .

.vfp11_veneer   0x00000000080010f0        0x0
 .vfp11_veneer  0x00000000080010f0        0x0 linker stubs

.v4_bx          0x00000000080010f0        0x0
 .v4_bx         0x00000000080010f0        0x0 linker stubs

.iplt           0x00000000080010f0        0x0
 .iplt          0x00000000080010f0        0x0 c:/st/stm32cubeide_1.7.0/stm32cubeide/plugins/com.st.stm32cube.ide.mcu.externaltools.gnu-tools-for-stm32.9-2020-q2-update.win32_2.0.0.202105311346/tools/bin/../lib/gcc/arm-none-eabi/9.3.1/thumb/v7e-m/nofp/crtbegin.o

.rel.dyn        0x00000000080010f0        0x0
 .rel.iplt      0x00000000080010f0        0x0 c:/st/stm32cubeide_1.7.0/stm32cubeide/plugins/com.st.stm32cube.ide.mcu.externaltools.gnu-tools-for-stm32.9-2020-q2-update.win32_2.0.0.202105311346/tools/bin/../lib/gcc/arm-none-eabi/9.3.1/thumb/v7e-m/nofp/crtbegin.o

.rodata         0x00000000080010f0        0x0
                0x00000000080010f0                . = ALIGN (0x4)
 *(.rodata)
 *(.rodata*)
                0x00000000080010f0                . = ALIGN (0x4)

.ARM.extab      0x00000000080010f0        0x0
                0x00000000080010f0                . = ALIGN (0x4)
 *(.ARM.extab* .gnu.linkonce.armextab.*)
                0x00000000080010f0                . = ALIGN (0x4)

.ARM            0x00000000080010f0        0x0
                0x00000000080010f0                . = ALIGN (0x4)
                0x00000000080010f0                __exidx_start = .
 *(.ARM.exidx*)
                0x00000000080010f0                __exidx_end = .
                0x00000000080010f0                . = ALIGN (0x4)

.preinit_array  0x00000000080010f0        0x0
                0x00000000080010f0                . = ALIGN (0x4)
                0x00000000080010f0                PROVIDE (__preinit_array_start = .)
 *(.preinit_array*)
                0x00000000080010f0                PROVIDE (__preinit_array_end = .)
                0x00000000080010f0                . = ALIGN (0x4)

.init_array     0x00000000080010f0        0x4
                0x00000000080010f0                . = ALIGN (0x4)
                0x00000000080010f0                PROVIDE (__init_array_start = .)
 *(SORT_BY_NAME(.init_array.*))
 *(.init_array*)
 .init_array    0x00000000080010f0        0x4 c:/st/stm32cubeide_1.7.0/stm32cubeide/plugins/com.st.stm32cube.ide.mcu.externaltools.gnu-tools-for-stm32.9-2020-q2-update.win32_2.0.0.202105311346/tools/bin/../lib/gcc/arm-none-eabi/9.3.1/thumb/v7e-m/nofp/crtbegin.o
                0x00000000080010f4                PROVIDE (__init_array_end = .)
                0x00000000080010f4                . = ALIGN (0x4)

.fini_array     0x00000000080010f4        0x4
                0x00000000080010f4                . = ALIGN (0x4)
                [!provide]                        PROVIDE (__fini_array_start = .)
 *(SORT_BY_NAME(.fini_array.*))
 *(.fini_array*)
 .fini_array    0x00000000080010f4        0x4 c:/st/stm32cubeide_1.7.0/stm32cubeide/plugins/com.st.stm32cube.ide.mcu.externaltools.gnu-tools-for-stm32.9-2020-q2-update.win32_2.0.0.202105311346/tools/bin/../lib/gcc/arm-none-eabi/9.3.1/thumb/v7e-m/nofp/crtbegin.o
                [!provide]                        PROVIDE (__fini_array_end = .)
                0x00000000080010f8                . = ALIGN (0x4)
                0x00000000080010f8                _sidata = LOADADDR (.data)

.data           0x0000000020000000       0x7c load address 0x00000000080010f8
                0x0000000020000000                . = ALIGN (0x4)
                0x0000000020000000                _sdata = .
 *(.data)
 .data          0x0000000020000000       0x50 ./Drivers/src/GPIO.o
                0x0000000020000000                lookuptable
 .data          0x0000000020000050       0x1c ./Drivers/src/PollDataClient.o
                0x0000000020000050                setpoint
                0x0000000020000054                PID_LIM_MIN
                0x0000000020000058                PID_LIM_MAX
                0x000000002000005c                pid_Kp
                0x0000000020000060                pid_Ki
                0x0000000020000064                pid_limMax
                0x0000000020000068                pid_T
 .data          0x000000002000006c        0xf ./Drivers/src/poller.o
                0x000000002000006c                polling_enabled
                0x0000000020000070                polling_counter
                0x0000000020000074                usart2TempData
 *(.data*)
                0x000000002000007c                . = ALIGN (0x4)
 *fill*         0x000000002000007b        0x1 
                0x000000002000007c                _edata = .

.igot.plt       0x000000002000007c        0x0 load address 0x0000000008001174
 .igot.plt      0x000000002000007c        0x0 c:/st/stm32cubeide_1.7.0/stm32cubeide/plugins/com.st.stm32cube.ide.mcu.externaltools.gnu-tools-for-stm32.9-2020-q2-update.win32_2.0.0.202105311346/tools/bin/../lib/gcc/arm-none-eabi/9.3.1/thumb/v7e-m/nofp/crtbegin.o
                0x000000002000007c                . = ALIGN (0x4)

.bss            0x000000002000007c       0x40 load address 0x0000000008001174
                0x000000002000007c                _sbss = .
                0x000000002000007c                __bss_start__ = _sbss
 *(.bss)
 .bss           0x000000002000007c       0x1c c:/st/stm32cubeide_1.7.0/stm32cubeide/plugins/com.st.stm32cube.ide.mcu.externaltools.gnu-tools-for-stm32.9-2020-q2-update.win32_2.0.0.202105311346/tools/bin/../lib/gcc/arm-none-eabi/9.3.1/thumb/v7e-m/nofp/crtbegin.o
 .bss           0x0000000020000098       0x18 ./Drivers/src/PollDataClient.o
                0x0000000020000098                pid_integrator
                0x000000002000009c                pid_prevError
                0x00000000200000a0                pid_prevMeasurement
                0x00000000200000a4                error
                0x00000000200000a8                pid_prevout
                0x00000000200000ac                pid_out
 .bss           0x00000000200000b0        0x8 ./Drivers/src/device.o
                0x00000000200000b0                spiData
                0x00000000200000b4                temperature
 .bss           0x00000000200000b8        0x4 ./Drivers/src/poller.o
                0x00000000200000b8                counter
 *(.bss*)
 *(COMMON)
                0x00000000200000bc                . = ALIGN (0x4)
                0x00000000200000bc                _ebss = .
                0x00000000200000bc                __bss_end__ = _ebss

._user_heap_stack
                0x00000000200000bc      0x404 load address 0x0000000008001174
                0x00000000200000c0                . = ALIGN (0x8)
 *fill*         0x00000000200000bc        0x4 
                0x00000000200000c0                PROVIDE (end = .)
                [!provide]                        PROVIDE (_end = .)
                0x00000000200000c0                . = (. + _Min_Heap_Size)
                0x00000000200004c0                . = (. + _Min_Stack_Size)
 *fill*         0x00000000200000c0      0x400 
                0x00000000200004c0                . = ALIGN (0x8)

/DISCARD/
 libc.a(*)
 libm.a(*)
 libgcc.a(*)

.ARM.attributes
                0x0000000000000000       0x2a
 *(.ARM.attributes)
 .ARM.attributes
                0x0000000000000000       0x1e c:/st/stm32cubeide_1.7.0/stm32cubeide/plugins/com.st.stm32cube.ide.mcu.externaltools.gnu-tools-for-stm32.9-2020-q2-update.win32_2.0.0.202105311346/tools/bin/../lib/gcc/arm-none-eabi/9.3.1/thumb/v7e-m/nofp/crti.o
 .ARM.attributes
                0x000000000000001e       0x2e c:/st/stm32cubeide_1.7.0/stm32cubeide/plugins/com.st.stm32cube.ide.mcu.externaltools.gnu-tools-for-stm32.9-2020-q2-update.win32_2.0.0.202105311346/tools/bin/../lib/gcc/arm-none-eabi/9.3.1/thumb/v7e-m/nofp/crtbegin.o
 .ARM.attributes
                0x000000000000004c       0x2e ./Drivers/src/GPIO.o
 .ARM.attributes
                0x000000000000007a       0x2e ./Drivers/src/PollDataClient.o
 .ARM.attributes
                0x00000000000000a8       0x2e ./Drivers/src/PollerTimer.o
 .ARM.attributes
                0x00000000000000d6       0x2e ./Drivers/src/SPI.o
 .ARM.attributes
                0x0000000000000104       0x2e ./Drivers/src/TC72.o
 .ARM.attributes
                0x0000000000000132       0x2e ./Drivers/src/USART.o
 .ARM.attributes
                0x0000000000000160       0x2e ./Drivers/src/device.o
 .ARM.attributes
                0x000000000000018e       0x2e ./Drivers/src/poller.o
 .ARM.attributes
                0x00000000000001bc       0x2e ./Drivers/src/system_stm32f4xx.o
 .ARM.attributes
                0x00000000000001ea       0x2e ./src/main.o
 .ARM.attributes
                0x0000000000000218       0x21 ./startup/startup_stm32.o
 .ARM.attributes
                0x0000000000000239       0x2e c:/st/stm32cubeide_1.7.0/stm32cubeide/plugins/com.st.stm32cube.ide.mcu.externaltools.gnu-tools-for-stm32.9-2020-q2-update.win32_2.0.0.202105311346/tools/bin/../lib/gcc/arm-none-eabi/9.3.1/../../../../arm-none-eabi/lib/thumb/v7e-m/nofp\libc_nano.a(lib_a-init.o)
 .ARM.attributes
                0x0000000000000267       0x1e c:/st/stm32cubeide_1.7.0/stm32cubeide/plugins/com.st.stm32cube.ide.mcu.externaltools.gnu-tools-for-stm32.9-2020-q2-update.win32_2.0.0.202105311346/tools/bin/../lib/gcc/arm-none-eabi/9.3.1/thumb/v7e-m/nofp\libgcc.a(_arm_mulsf3.o)
 .ARM.attributes
                0x0000000000000285       0x1e c:/st/stm32cubeide_1.7.0/stm32cubeide/plugins/com.st.stm32cube.ide.mcu.externaltools.gnu-tools-for-stm32.9-2020-q2-update.win32_2.0.0.202105311346/tools/bin/../lib/gcc/arm-none-eabi/9.3.1/thumb/v7e-m/nofp\libgcc.a(_arm_addsubsf3.o)
 .ARM.attributes
                0x00000000000002a3       0x1e c:/st/stm32cubeide_1.7.0/stm32cubeide/plugins/com.st.stm32cube.ide.mcu.externaltools.gnu-tools-for-stm32.9-2020-q2-update.win32_2.0.0.202105311346/tools/bin/../lib/gcc/arm-none-eabi/9.3.1/thumb/v7e-m/nofp\libgcc.a(_arm_cmpsf2.o)
 .ARM.attributes
                0x00000000000002c1       0x1e c:/st/stm32cubeide_1.7.0/stm32cubeide/plugins/com.st.stm32cube.ide.mcu.externaltools.gnu-tools-for-stm32.9-2020-q2-update.win32_2.0.0.202105311346/tools/bin/../lib/gcc/arm-none-eabi/9.3.1/thumb/v7e-m/nofp\libgcc.a(_arm_fixsfsi.o)
 .ARM.attributes
                0x00000000000002df       0x1e c:/st/stm32cubeide_1.7.0/stm32cubeide/plugins/com.st.stm32cube.ide.mcu.externaltools.gnu-tools-for-stm32.9-2020-q2-update.win32_2.0.0.202105311346/tools/bin/../lib/gcc/arm-none-eabi/9.3.1/thumb/v7e-m/nofp/crtn.o
OUTPUT(PID_Controller.elf elf32-littlearm)
LOAD linker stubs
LOAD c:/st/stm32cubeide_1.7.0/stm32cubeide/plugins/com.st.stm32cube.ide.mcu.externaltools.gnu-tools-for-stm32.9-2020-q2-update.win32_2.0.0.202105311346/tools/bin/../lib/gcc/arm-none-eabi/9.3.1/../../../../arm-none-eabi/lib/thumb/v7e-m/nofp\libc.a
LOAD c:/st/stm32cubeide_1.7.0/stm32cubeide/plugins/com.st.stm32cube.ide.mcu.externaltools.gnu-tools-for-stm32.9-2020-q2-update.win32_2.0.0.202105311346/tools/bin/../lib/gcc/arm-none-eabi/9.3.1/../../../../arm-none-eabi/lib/thumb/v7e-m/nofp\libm.a
LOAD c:/st/stm32cubeide_1.7.0/stm32cubeide/plugins/com.st.stm32cube.ide.mcu.externaltools.gnu-tools-for-stm32.9-2020-q2-update.win32_2.0.0.202105311346/tools/bin/../lib/gcc/arm-none-eabi/9.3.1/thumb/v7e-m/nofp\libgcc.a

.debug_info     0x0000000000000000     0x1f0d
 .debug_info    0x0000000000000000      0x17a ./Drivers/src/GPIO.o
 .debug_info    0x000000000000017a      0xa4e ./Drivers/src/PollDataClient.o
 .debug_info    0x0000000000000bc8      0x886 ./Drivers/src/PollerTimer.o
 .debug_info    0x000000000000144e       0xb1 ./Drivers/src/SPI.o
 .debug_info    0x00000000000014ff       0xc3 ./Drivers/src/TC72.o
 .debug_info    0x00000000000015c2       0x81 ./Drivers/src/USART.o
 .debug_info    0x0000000000001643       0x72 ./Drivers/src/device.o
 .debug_info    0x00000000000016b5      0x16d ./Drivers/src/poller.o
 .debug_info    0x0000000000001822      0x3b3 ./Drivers/src/system_stm32f4xx.o
 .debug_info    0x0000000000001bd5      0x316 ./src/main.o
 .debug_info    0x0000000000001eeb       0x22 ./startup/startup_stm32.o

.debug_abbrev   0x0000000000000000      0x8fb
 .debug_abbrev  0x0000000000000000       0xc6 ./Drivers/src/GPIO.o
 .debug_abbrev  0x00000000000000c6      0x1b8 ./Drivers/src/PollDataClient.o
 .debug_abbrev  0x000000000000027e      0x193 ./Drivers/src/PollerTimer.o
 .debug_abbrev  0x0000000000000411       0x85 ./Drivers/src/SPI.o
 .debug_abbrev  0x0000000000000496       0x72 ./Drivers/src/TC72.o
 .debug_abbrev  0x0000000000000508       0x72 ./Drivers/src/USART.o
 .debug_abbrev  0x000000000000057a       0x51 ./Drivers/src/device.o
 .debug_abbrev  0x00000000000005cb      0x103 ./Drivers/src/poller.o
 .debug_abbrev  0x00000000000006ce      0x13c ./Drivers/src/system_stm32f4xx.o
 .debug_abbrev  0x000000000000080a       0xdf ./src/main.o
 .debug_abbrev  0x00000000000008e9       0x12 ./startup/startup_stm32.o

.debug_aranges  0x0000000000000000      0x210
 .debug_aranges
                0x0000000000000000       0x38 ./Drivers/src/GPIO.o
 .debug_aranges
                0x0000000000000038       0x20 ./Drivers/src/PollDataClient.o
 .debug_aranges
                0x0000000000000058       0x50 ./Drivers/src/PollerTimer.o
 .debug_aranges
                0x00000000000000a8       0x30 ./Drivers/src/SPI.o
 .debug_aranges
                0x00000000000000d8       0x30 ./Drivers/src/TC72.o
 .debug_aranges
                0x0000000000000108       0x30 ./Drivers/src/USART.o
 .debug_aranges
                0x0000000000000138       0x20 ./Drivers/src/device.o
 .debug_aranges
                0x0000000000000158       0x40 ./Drivers/src/poller.o
 .debug_aranges
                0x0000000000000198       0x28 ./Drivers/src/system_stm32f4xx.o
 .debug_aranges
                0x00000000000001c0       0x28 ./src/main.o
 .debug_aranges
                0x00000000000001e8       0x28 ./startup/startup_stm32.o

.debug_ranges   0x0000000000000000      0x168
 .debug_ranges  0x0000000000000000       0x28 ./Drivers/src/GPIO.o
 .debug_ranges  0x0000000000000028       0x10 ./Drivers/src/PollDataClient.o
 .debug_ranges  0x0000000000000038       0x40 ./Drivers/src/PollerTimer.o
 .debug_ranges  0x0000000000000078       0x20 ./Drivers/src/SPI.o
 .debug_ranges  0x0000000000000098       0x20 ./Drivers/src/TC72.o
 .debug_ranges  0x00000000000000b8       0x20 ./Drivers/src/USART.o
 .debug_ranges  0x00000000000000d8       0x10 ./Drivers/src/device.o
 .debug_ranges  0x00000000000000e8       0x30 ./Drivers/src/poller.o
 .debug_ranges  0x0000000000000118       0x18 ./Drivers/src/system_stm32f4xx.o
 .debug_ranges  0x0000000000000130       0x18 ./src/main.o
 .debug_ranges  0x0000000000000148       0x20 ./startup/startup_stm32.o

.debug_macro    0x0000000000000000     0xb1e6
 .debug_macro   0x0000000000000000       0x1a ./Drivers/src/GPIO.o
 .debug_macro   0x000000000000001a      0xaa8 ./Drivers/src/GPIO.o
 .debug_macro   0x0000000000000ac2       0xe8 ./Drivers/src/GPIO.o
 .debug_macro   0x0000000000000baa      0x1bb ./Drivers/src/PollDataClient.o
 .debug_macro   0x0000000000000d65       0x3a ./Drivers/src/PollDataClient.o
 .debug_macro   0x0000000000000d9f       0x22 ./Drivers/src/PollDataClient.o
 .debug_macro   0x0000000000000dc1       0x4c ./Drivers/src/PollDataClient.o
 .debug_macro   0x0000000000000e0d       0x18 ./Drivers/src/PollDataClient.o
 .debug_macro   0x0000000000000e25       0x94 ./Drivers/src/PollDataClient.o
 .debug_macro   0x0000000000000eb9       0x3c ./Drivers/src/PollDataClient.o
 .debug_macro   0x0000000000000ef5       0x34 ./Drivers/src/PollDataClient.o
 .debug_macro   0x0000000000000f29       0x16 ./Drivers/src/PollDataClient.o
 .debug_macro   0x0000000000000f3f       0x57 ./Drivers/src/PollDataClient.o
 .debug_macro   0x0000000000000f96       0x97 ./Drivers/src/PollDataClient.o
 .debug_macro   0x000000000000102d      0x339 ./Drivers/src/PollDataClient.o
 .debug_macro   0x0000000000001366       0xfd ./Drivers/src/PollDataClient.o
 .debug_macro   0x0000000000001463       0x10 ./Drivers/src/PollDataClient.o
 .debug_macro   0x0000000000001473       0x16 ./Drivers/src/PollDataClient.o
 .debug_macro   0x0000000000001489       0x43 ./Drivers/src/PollDataClient.o
 .debug_macro   0x00000000000014cc       0x34 ./Drivers/src/PollDataClient.o
 .debug_macro   0x0000000000001500       0x10 ./Drivers/src/PollDataClient.o
 .debug_macro   0x0000000000001510       0x58 ./Drivers/src/PollDataClient.o
 .debug_macro   0x0000000000001568       0x71 ./Drivers/src/PollDataClient.o
 .debug_macro   0x00000000000015d9       0x1c ./Drivers/src/PollDataClient.o
 .debug_macro   0x00000000000015f5      0x12a ./Drivers/src/PollDataClient.o
 .debug_macro   0x000000000000171f       0x10 ./Drivers/src/PollDataClient.o
 .debug_macro   0x000000000000172f       0x6a ./Drivers/src/PollDataClient.o
 .debug_macro   0x0000000000001799       0x1c ./Drivers/src/PollDataClient.o
 .debug_macro   0x00000000000017b5       0x52 ./Drivers/src/PollDataClient.o
 .debug_macro   0x0000000000001807       0x22 ./Drivers/src/PollDataClient.o
 .debug_macro   0x0000000000001829       0x10 ./Drivers/src/PollDataClient.o
 .debug_macro   0x0000000000001839       0x40 ./Drivers/src/PollDataClient.o
 .debug_macro   0x0000000000001879       0xd5 ./Drivers/src/PollDataClient.o
 .debug_macro   0x000000000000194e       0x1c ./Drivers/src/PollDataClient.o
 .debug_macro   0x000000000000196a       0x3d ./Drivers/src/PollDataClient.o
 .debug_macro   0x00000000000019a7       0x16 ./Drivers/src/PollDataClient.o
 .debug_macro   0x00000000000019bd      0x145 ./Drivers/src/PollDataClient.o
 .debug_macro   0x0000000000001b02       0xbf ./Drivers/src/PollerTimer.o
 .debug_macro   0x0000000000001bc1       0x65 ./Drivers/src/PollerTimer.o
 .debug_macro   0x0000000000001c26       0x3b ./Drivers/src/PollerTimer.o
 .debug_macro   0x0000000000001c61       0x8e ./Drivers/src/PollerTimer.o
 .debug_macro   0x0000000000001cef       0x51 ./Drivers/src/PollerTimer.o
 .debug_macro   0x0000000000001d40      0x103 ./Drivers/src/PollerTimer.o
 .debug_macro   0x0000000000001e43      0x1df ./Drivers/src/PollerTimer.o
 .debug_macro   0x0000000000002022       0x34 ./Drivers/src/PollerTimer.o
 .debug_macro   0x0000000000002056       0x26 ./Drivers/src/PollerTimer.o
 .debug_macro   0x000000000000207c      0xe43 ./Drivers/src/PollerTimer.o
 .debug_macro   0x0000000000002ebf     0x800a ./Drivers/src/PollerTimer.o
 .debug_macro   0x000000000000aec9       0x23 ./Drivers/src/SPI.o
 .debug_macro   0x000000000000aeec       0x46 ./Drivers/src/SPI.o
 .debug_macro   0x000000000000af32       0x22 ./Drivers/src/SPI.o
 .debug_macro   0x000000000000af54       0x2d ./Drivers/src/TC72.o
 .debug_macro   0x000000000000af81       0x1c ./Drivers/src/TC72.o
 .debug_macro   0x000000000000af9d       0x23 ./Drivers/src/USART.o
 .debug_macro   0x000000000000afc0       0x56 ./Drivers/src/device.o
 .debug_macro   0x000000000000b016       0x41 ./Drivers/src/poller.o
 .debug_macro   0x000000000000b057       0xab ./Drivers/src/system_stm32f4xx.o
 .debug_macro   0x000000000000b102       0xe4 ./src/main.o

.debug_line     0x0000000000000000     0x1d47
 .debug_line    0x0000000000000000      0x1a7 ./Drivers/src/GPIO.o
 .debug_line    0x00000000000001a7      0x612 ./Drivers/src/PollDataClient.o
 .debug_line    0x00000000000007b9      0x593 ./Drivers/src/PollerTimer.o
 .debug_line    0x0000000000000d4c      0x106 ./Drivers/src/SPI.o
 .debug_line    0x0000000000000e52       0xd8 ./Drivers/src/TC72.o
 .debug_line    0x0000000000000f2a       0xf4 ./Drivers/src/USART.o
 .debug_line    0x000000000000101e       0xff ./Drivers/src/device.o
 .debug_line    0x000000000000111d      0x199 ./Drivers/src/poller.o
 .debug_line    0x00000000000012b6      0x4fe ./Drivers/src/system_stm32f4xx.o
 .debug_line    0x00000000000017b4      0x517 ./src/main.o
 .debug_line    0x0000000000001ccb       0x7c ./startup/startup_stm32.o

.debug_str      0x0000000000000000    0x3ab24
 .debug_str     0x0000000000000000     0x330d ./Drivers/src/GPIO.o
                                       0x3339 (size before relaxing)
 .debug_str     0x000000000000330d     0x49b4 ./Drivers/src/PollDataClient.o
                                       0x7e19 (size before relaxing)
 .debug_str     0x0000000000007cc1    0x32928 ./Drivers/src/PollerTimer.o
                                      0x35c81 (size before relaxing)
 .debug_str     0x000000000003a5e9      0x21c ./Drivers/src/SPI.o
                                       0x2f9d (size before relaxing)
 .debug_str     0x000000000003a805       0xef ./Drivers/src/TC72.o
                                       0x2fa6 (size before relaxing)
 .debug_str     0x000000000003a8f4       0x43 ./Drivers/src/USART.o
                                       0x3433 (size before relaxing)
 .debug_str     0x000000000003a937       0x94 ./Drivers/src/device.o
                                       0x35e1 (size before relaxing)
 .debug_str     0x000000000003a9cb       0x93 ./Drivers/src/poller.o
                                       0x34e3 (size before relaxing)
 .debug_str     0x000000000003aa5e       0x7a ./Drivers/src/system_stm32f4xx.o
                                      0x357d8 (size before relaxing)
 .debug_str     0x000000000003aad8       0x23 ./src/main.o
                                      0x35f18 (size before relaxing)
 .debug_str     0x000000000003aafb       0x29 ./startup/startup_stm32.o
                                         0x5e (size before relaxing)

.comment        0x0000000000000000       0x53
 .comment       0x0000000000000000       0x53 ./Drivers/src/GPIO.o
                                         0x54 (size before relaxing)
 .comment       0x0000000000000053       0x54 ./Drivers/src/PollDataClient.o
 .comment       0x0000000000000053       0x54 ./Drivers/src/PollerTimer.o
 .comment       0x0000000000000053       0x54 ./Drivers/src/SPI.o
 .comment       0x0000000000000053       0x54 ./Drivers/src/TC72.o
 .comment       0x0000000000000053       0x54 ./Drivers/src/USART.o
 .comment       0x0000000000000053       0x54 ./Drivers/src/device.o
 .comment       0x0000000000000053       0x54 ./Drivers/src/poller.o
 .comment       0x0000000000000053       0x54 ./Drivers/src/system_stm32f4xx.o
 .comment       0x0000000000000053       0x54 ./src/main.o

.debug_frame    0x0000000000000000      0x66c
 .debug_frame   0x0000000000000000       0xb8 ./Drivers/src/GPIO.o
 .debug_frame   0x00000000000000b8       0x38 ./Drivers/src/PollDataClient.o
 .debug_frame   0x00000000000000f0       0xf4 ./Drivers/src/PollerTimer.o
 .debug_frame   0x00000000000001e4       0x80 ./Drivers/src/SPI.o
 .debug_frame   0x0000000000000264       0x7c ./Drivers/src/TC72.o
 .debug_frame   0x00000000000002e0       0x78 ./Drivers/src/USART.o
 .debug_frame   0x0000000000000358       0x2c ./Drivers/src/device.o
 .debug_frame   0x0000000000000384       0xc0 ./Drivers/src/poller.o
 .debug_frame   0x0000000000000444       0x58 ./Drivers/src/system_stm32f4xx.o
 .debug_frame   0x000000000000049c       0x48 ./src/main.o
 .debug_frame   0x00000000000004e4       0x2c c:/st/stm32cubeide_1.7.0/stm32cubeide/plugins/com.st.stm32cube.ide.mcu.externaltools.gnu-tools-for-stm32.9-2020-q2-update.win32_2.0.0.202105311346/tools/bin/../lib/gcc/arm-none-eabi/9.3.1/../../../../arm-none-eabi/lib/thumb/v7e-m/nofp\libc_nano.a(lib_a-init.o)
 .debug_frame   0x0000000000000510       0x24 c:/st/stm32cubeide_1.7.0/stm32cubeide/plugins/com.st.stm32cube.ide.mcu.externaltools.gnu-tools-for-stm32.9-2020-q2-update.win32_2.0.0.202105311346/tools/bin/../lib/gcc/arm-none-eabi/9.3.1/thumb/v7e-m/nofp\libgcc.a(_arm_mulsf3.o)
 .debug_frame   0x0000000000000534       0x4c c:/st/stm32cubeide_1.7.0/stm32cubeide/plugins/com.st.stm32cube.ide.mcu.externaltools.gnu-tools-for-stm32.9-2020-q2-update.win32_2.0.0.202105311346/tools/bin/../lib/gcc/arm-none-eabi/9.3.1/thumb/v7e-m/nofp\libgcc.a(_arm_addsubsf3.o)
 .debug_frame   0x0000000000000580       0xc8 c:/st/stm32cubeide_1.7.0/stm32cubeide/plugins/com.st.stm32cube.ide.mcu.externaltools.gnu-tools-for-stm32.9-2020-q2-update.win32_2.0.0.202105311346/tools/bin/../lib/gcc/arm-none-eabi/9.3.1/thumb/v7e-m/nofp\libgcc.a(_arm_cmpsf2.o)
 .debug_frame   0x0000000000000648       0x24 c:/st/stm32cubeide_1.7.0/stm32cubeide/plugins/com.st.stm32cube.ide.mcu.externaltools.gnu-tools-for-stm32.9-2020-q2-update.win32_2.0.0.202105311346/tools/bin/../lib/gcc/arm-none-eabi/9.3.1/thumb/v7e-m/nofp\libgcc.a(_arm_fixsfsi.o)
